ARM GAS  C:\Users\IYANG~1.DES\AppData\Local\Temp\cc9lGksf.s 			page 1


   1              		.cpu cortex-m0
   2              		.fpu softvfp
   3              		.eabi_attribute 20, 1
   4              		.eabi_attribute 21, 1
   5              		.eabi_attribute 23, 3
   6              		.eabi_attribute 24, 1
   7              		.eabi_attribute 25, 1
   8              		.eabi_attribute 26, 1
   9              		.eabi_attribute 30, 2
  10              		.eabi_attribute 34, 0
  11              		.eabi_attribute 18, 4
  12              		.code	16
  13              		.file	"cyfitter_cfg.c"
  14              		.text
  15              	.Ltext0:
  16              		.section	.gnu.lto_.profile.181383ef,"",%progbits
  17 0000 789C6366 		.ascii	"x\234cf```e\200\000F\206Y\214\376\000\002\251\000\364"
  17      60606065 
  17      80004686 
  17      598CFE00 
  17      02A900F4 
  18              		.text
  19              		.section	.gnu.lto_.jmpfuncs.181383ef,"",%progbits
  20 0000 789C6366 		.ascii	"x\234cf\300\016z\24043\02032}db\354z\275f'\377\013\246"
  20      C00E7AA0 
  20      34331033 
  20      327D6462 
  20      EC7ABD66 
  21 0018 9F4C0C77 		.ascii	"\237L\014w\270\031\030\2273JA\204\037\354\372\372\221"
  21      B8191897 
  21      334A4184 
  21      1FECFAFA 
  21      91
  22 0029 1124CC78 		.ascii	"\021$\314x\201\237\201q\005Lx\331\335\326_\234`a\001"
  22      819F8171 
  22      054C78D9 
  22      DDD65F9C 
  22      606101
  23 003c 06C69530 		.ascii	"\006\306\2250\321\213\263\2265\203\315`dd`\\\005\023"
  23      D18BB396 
  23      3583CD60 
  23      6464605C 
  23      0513
  24 004e BDF5EAD7 		.ascii	"\275\365\352\327\023>\260h\303\266;\254\014\214\253"
  24      133EB068 
  24      C3B63BAC 
  24      0C8CAB
  25 005d 81120C8C 		.ascii	"\201\022\014\214@P\317\004q\000\023\243\262\024\310"
  25      4050CF04 
  25      710013A3 
  25      B214C8
  26 006c 2D003435 		.ascii	"-\00045':"
  26      273A
  27              		.text
  28              		.section	.gnu.lto_.inline.181383ef,"",%progbits
  29 0000 789C6366 		.ascii	"x\234cf\300\016\026Bif\006\006\205\253\014\214\014L"
  29      C00E1642 
ARM GAS  C:\Users\IYANG~1.DES\AppData\Local\Temp\cc9lGksf.s 			page 2


  29      69660606 
  29      85AB0C8C 
  29      0C4C
  30 0012 2A0B6632 		.ascii	"*\013f21\260-\220g\002\2112q3\200\304p\220\214\\\014"
  30      31B02D90 
  30      67028932 
  30      713380C4 
  30      70908C5C 
  31 0027 208A939D 		.ascii	" \212\223\235\221\231!\363#\023c\343\262\335=\354/\230"
  31      919921F3 
  31      231363E3 
  31      B2DD3DEC 
  31      2F98
  32 0039 7E3201F5 		.ascii	"~2\001\3652.g\224b`\310\200P\214\014\014\254,\013\344"
  32      322E6794 
  32      6260C880 
  32      508C0C0C 
  32      AC2C0BE4 
  33 004d 21C60219 		.ascii	"!\306\002\031\002\014LG89\030\230z\330X\300\2660\350"
  33      020C4C47 
  33      38391898 
  33      7AD858C0 
  33      B630E8
  34 0060 5C0419EA 		.ascii	"\\\004\031\352\361a>+\334j\260\341,\274\214\014\314"
  34      F1613E2B 
  34      DC6AB0E1 
  34      2CBC8C0C 
  34      CC
  35 0071 13FC1880 		.ascii	"\023\374\030\200\010\000R\017\025&"
  35      0800520F 
  35      1526
  36              		.text
  37              		.section	.gnu.lto_.pureconst.181383ef,"",%progbits
  38 0000 789C6366 		.ascii	"x\234cf```g\200\000f\006)F)&+\000\001\334\000\177"
  38      60606067 
  38      80006606 
  38      29462926 
  38      2B0001DC 
  39              		.text
  40              		.section	.gnu.lto_ClockSetup.181383ef,"",%progbits
  41 0000 789C7595 		.ascii	"x\234u\225\337OSI\024\307\347\314\255\375u\221\242\217"
  41      DF4F5349 
  41      14C7E7CC 
  41      ADFD7591 
  41      A28F
  42 0012 3CFAA0BE 		.ascii	"<\372\240\276\254O\373\007l\342\203o\233M|3&j\260\032"
  42      AC4FFB07 
  42      6CE2836F 
  42      9B4D7C33 
  42      266AB01A 
  43 0026 5FD684B0 		.ascii	"_\326\204\260\017\2721\336B%\265\2424\210\212\"\232"
  43      0FBA31DE 
  43      4225B5A2 
  43      34888A22 
  43      9A
  44 0037 A8204A17 		.ascii	"\250 J\027+\256 t\201R\025\\E~\010n\021o\301\020H\004"
  44      2BAE2074 
ARM GAS  C:\Users\IYANG~1.DES\AppData\Local\Temp\cc9lGksf.s 			page 3


  44      8152155C 
  44      457E086E 
  44      116FC110 
  45 004d 31B6167F 		.ascii	"1\266\026\177\264\376\250gf\356\334\342Z\232\364\336"
  45      B4FEA867 
  45      66EEDCE2 
  45      5A9AF4DE 
  46 005d F6CE399F 		.ascii	"\366\3169\237\357\231\357\234\231\253\220\037?\305\370"
  46      EF99EF9C 
  46      99AB901F 
  46      3FC5F8
  47 006c 5DB412B2 		.ascii	"]\264\022\262\021\357\240\020\240\201!B<v\012\300~\020"
  47      11EFA010 
  47      A0812142 
  47      3C760AC0 
  47      7E10
  48 007e 2087291C 		.ascii	" \207)\034\206y\232\244\020\210\264\324\251\033\032"
  48      86799AA4 
  48      1088B4D4 
  48      A91B1A
  49 008d 354D4B5C 		.ascii	"5MK\\\212\225i\265;\323\224\220\024\025\034\270\012"
  49      8A9569B5 
  49      3BD39490 
  49      14151CB8 
  49      0A
  50 009e 1B080625 		.ascii	"\033\010\006%\275_b\252\325\213AEb\014\232\301\012x"
  50      BD5F62AA 
  50      D58B4145 
  50      620C9AC1 
  50      0A78
  51 00b0 BFB136A2 		.ascii	"\277\2616\242e\263\251xM\363z\245\330A\322\024\234\354"
  51      65B3A978 
  51      4DF37AA5 
  51      D841D214 
  51      9CEC
  52 00c2 52C82E2E 		.ascii	"R\310..v!d\026\343\231\352\034\245\354\256LB4\021\232"
  52      76216416 
  52      E399EA1C 
  52      A5ECAE4C 
  52      4234119A 
  53 00d6 5EC70848 		.ascii	"^\307\010H\256\357\231\033w\274\244iJCZD\2630\261\351"
  53      AEEF991B 
  53      77BCA469 
  53      4A435A44 
  53      B330B1E9 
  54 00ea D9E1513B 		.ascii	"\331\341Q;\177D\330\337\311c}!\332\000\365\036/\244"
  54      7F44D8DF 
  54      C9637D21 
  54      DA00F51E 
  54      2FA4
  55 00fc A902D7A0 		.ascii	"\251\002\327\240\030\256\003N\020Z\240\001p\334\367"
  55      18AE034E 
  55      105AA001 
  55      70DCF7
  56 010b FA6CB5CA 		.ascii	"\372l\265\312\302a-\201 \216\350P\021\251Q\031\237\245"
  56      C2612D81 
  56      208EE850 
ARM GAS  C:\Users\IYANG~1.DES\AppData\Local\Temp\cc9lGksf.s 			page 4


  56      11A95119 
  56      9FA5
  57 011d 5F183BD1 		.ascii	"_\030;\321J\017}\322|\232=M-)V\021\374\005\207\260\266"
  57      4A0F7DD2 
  57      7C9A3D4D 
  57      2D295611 
  57      FC0587B0 
  58 0132 5518E98D 		.ascii	"U\030\351\215\324\346\217\264\246\230<\264b$\253a!3"
  58      D4E68FB4 
  58      A6983CB4 
  58      6224AB61 
  58      2133
  59 0144 5BC8346C 		.ascii	"[\3104lZ\273\276\212\300\015(NS;\317?\235?\337\221\242"
  59      5ABBBE8A 
  59      C00D284E 
  59      533BCF3F 
  59      9D3FDF91 
  60 0159 0AE68744 		.ascii	"\012\346\207D\376\350\271\246\012\027\317\007\0027Y"
  60      FEE8B9A6 
  60      0A17CF07 
  60      023759
  61 0168 B293279F 		.ascii	"\262\223'\237_Q\334\202\311m\"\271)~$\303-\262\025\021"
  61      5F51DC82 
  61      C96D22B9 
  61      297E24C3 
  61      2DB21511 
  62 017c B8259499 		.ascii	"\270%\224\231\211\201Ej\230\370\366\375\374An\230\267"
  62      8981456A 
  62      98F8F6FD 
  62      FC416E98 
  62      B7
  63 018d 3C283C1C 		.ascii	"<(<\034k\210/\332r\246\375m\232v[\230v\372\322\302\334"
  63      6B882FDA 
  63      72A6FD6D 
  63      9A765B98 
  63      76FAD2C2 
  64 01a2 6A6E5A25 		.ascii	"jnZ%.\252\235@;\2162\350\310k\011m8z\345,\017\241U^"
  64      2EAA9D40 
  64      3B8E32E8 
  64      C86B096D 
  64      387AE52C 
  65 01ba 833A7D55 		.ascii	"\203:}U\017\2529j\207I\275#\250\367\333n\177\245\234"
  65      0FAA396A 
  65      8749BD23 
  65      A8F7DB6E 
  65      7FA59C
  66 01cd 8A504C81 		.ascii	"\212PL\201NA}\357\317\374\304\250\037\250\003\243\242"
  66      4E417DEF 
  66      CFFCC4A8 
  66      1FA803A3 
  66      A2
  67 01de AD6FAB14 		.ascii	"\255o\253\024\026\245~\324\356x\276_r\225/y\262+\232"
  67      16A57ED4 
  67      EE78BE5F 
  67      72952F79 
  67      B22B9A
  68 01f1 51A44E01 		.ascii	"Q\244N\001t\241N\230\353\374\203:\010\254X\262\012\234"
ARM GAS  C:\Users\IYANG~1.DES\AppData\Local\Temp\cc9lGksf.s 			page 5


  68      74A14E98 
  68      EBFC833A 
  68      08AC58B2 
  68      0A9C
  69 0203 5310CFC5 		.ascii	"S\020\317\305\346\2268\021(\201n\241Y\003\306<L9j\312"
  69      E6963811 
  69      28816EA1 
  69      5903C63C 
  69      4C396ACA 
  70 0217 7DC757A0 		.ascii	"}\307W\240\307\234G/\362\221*\354]\222N\014N\006\353"
  70      C79C472F 
  70      F2912AEC 
  70      5D924E0C 
  70      4E06EB
  71 022a 2D9CF059 		.ascii	"-\234\360Y\022R\003\215\355\313\234\210\230\204>\341"
  71      1252038D 
  71      EDCB9C88 
  71      98843EE1 
  72 023a C4A9619F 		.ascii	"\304\251a\237\257\200W\264\260\215@\32407\360N\"'Zg"
  72      AF8057B4 
  72      B08D40D4 
  72      3037F04E 
  72      22275A67 
  73 024e FEE4C4D9 		.ascii	"\376\344\304\331\027aA\354yz\275\327\231#\3365\211\367"
  73      176141EC 
  73      797ABDD7 
  73      9923DE35 
  73      89F7
  74 0260 04D1D314 		.ascii	"\004\321\323\024\256\262q\">\273/}\235\331$\214(\304"
  74      AEB27122 
  74      3EBB2F7D 
  74      9DD9248C 
  74      28C4
  75 0272 8885B109 		.ascii	"\210\205\261\011\215/\230\272(\241\217*\313\217:sF\366"
  75      8D2F98BA 
  75      28A18F2A 
  75      CB8F3A73 
  75      46F6
  76 0284 9B460E18 		.ascii	"\233F\016\030F~4\214t\011\304\311\343w\3712\300\207"
  76      467E348C 
  76      7409C4C9 
  76      E377F932 
  76      C087
  77 0296 6C36EB22 		.ascii	"l6\353\"\360\340\177^\232\0224\277\204\002\377\232u"
  77      F0E07F5E 
  77      9A1234BF 
  77      8402FF9A 
  77      75
  78 02a7 3FE45EBA 		.ascii	"?\344^\272x\237\353\371\373|u\0127!\201G\242\317_t\275"
  78      789FEBF9 
  78      FB7C750A 
  78      37218147 
  78      A2CF5F74 
  79 02bc 4B02EFF3 		.ascii	"K\002\357\363\021\224\036d\215^\310\263\247\362g\273"
  79      11941E64 
  79      8D5EC8B3 
  79      A7F267BB 
ARM GAS  C:\Users\IYANG~1.DES\AppData\Local\Temp\cc9lGksf.s 			page 6


  80 02cc 52148F38 		.ascii	"R\024\2178x,\262\375\257\202\235|\213\025\351*\201!"
  80      782CB2FD 
  80      AF829D7C 
  80      8B15E92A 
  80      8121
  81 02de 96BD4698 		.ascii	"\226\275F\230\376E\232^\257'\337\360\020\252UzEG\307"
  81      FE459A5E 
  81      AF27DFF0 
  81      10AA557A 
  81      4547C7
  82 02f1 E2FE6E4B 		.ascii	"\342\376nK\256\372a\263\372\021\341zub\364\270Ct4\266"
  82      AEFA61B3 
  82      FA11E17A 
  82      7562F4B8 
  82      437434B6 
  83 0305 F3A8DC24 		.ascii	"\363\250\334$&\362\224\3362T \220\232\201\354\353\366"
  83      26F294DE 
  83      32542090 
  83      9A81ECEB 
  83      F6
  84 0316 1FCC119F 		.ascii	"\037\314\021\237\230\3041A\234i\236\177\310g\011\221"
  84      98C43141 
  84      9C699E7F 
  84      C8670991 
  85 0326 AF156CE7 		.ascii	"\257\025l\347\215\313\346\310Jh\357xu\225\200\372\344"
  85      8DCBE6C8 
  85      4A68EF78 
  85      759580FA 
  85      E4
  86 0337 7EEEBDE9 		.ascii	"~\356\275\351\277\0109\352S\223\372\237\240\352\321"
  86      BF0839EA 
  86      5393FA9F 
  86      A0EAD1
  87 0346 FE3A97DC 		.ascii	"\376:\227\334y!'\201\230,\365\236bP\303-g:l\242TI=y"
  87      79212781 
  87      982CF59E 
  87      6250C32D 
  87      673A6CA2 
  88 035e 2CFC66D9 		.ascii	",\374f\331\354'L\3523\244\312&K\004\372%\242\2436\363"
  88      EC274CEA 
  88      33A4CA26 
  88      4B04FA25 
  88      A2A336F3 
  89 0372 841FB5B4 		.ascii	"\204\037\265\264\256\334\230m\317\374Pb\031b\322D<\027"
  89      AEDC986D 
  89      CFFC5062 
  89      1962D244 
  89      3C17
  90 0384 85B55D6E 		.ascii	"\205\265]nl\027\006\376B@\227\304\001I\\\361D\211\263"
  90      6C1706FE 
  90      424097C4 
  90      01495CF1 
  90      4489B3
  91 0397 0A3A65FC 		.ascii	"\012:e\374\240\214_\361e0%+\236\002O\344\326\257\274"
  91      A08C5FF1 
  91      6530252B 
  91      9E024FE4 
ARM GAS  C:\Users\IYANG~1.DES\AppData\Local\Temp\cc9lGksf.s 			page 7


  91      D6AFBC
  92 03aa 61087BF9 		.ascii	"a\010{\371\000{\351\340Q\276~\213\373ww\351\2562\367"
  92      007BE9E0 
  92      51BE7E8B 
  92      FB7777E9 
  92      AE32F7
  93 03bd EE1D5BF7 		.ascii	"\356\035[\367\377QZ\342\336\376\333\326\375\233\177"
  93      FF515AE2 
  93      DEFEDBD6 
  93      FD9B7F
  94 03cc DE5E7260 		.ascii	"\336^r`\317\276\2622w\351\216\222={7\225\220o\315P\222"
  94      CFBEB232 
  94      77E98E92 
  94      3D7B3795 
  94      906FCD50 
  95 03e1 72       		.ascii	"r"
  96              		.text
  97              		.section	.gnu.lto_SetAnalogRoutingPumps.181383ef,"",%progbits
  98 0000 789C6592 		.ascii	"x\234e\222MHTQ\024\307\317\271\367\2757\317\031\003"
  98      4D485451 
  98      14C7CFB9 
  98      F7BD37CF 
  98      1903
  99 0012 6925B3B0 		.ascii	"i%\263\260`2\021$\351cQ\213 hQ\313Hh%\3104>%\020\215"
  99      60321124 
  99      E963518B 
  99      206851CB 
  99      486825C8 
 100 002b 615CB4F2 		.ascii	"a\\\264\362>g\234 Z\330D \304\020\0255N\326Xi\205%8"
 100      3E679C20 
 100      5AD84420 
 100      C4101535 
 100      4ED65869 
 101 0042 B4903128 		.ascii	"\264\2201(\023G#\027\346\302\021\3335\214hS\352\353"
 101      13472317 
 101      E6C211DB 
 101      358C6853 
 101      EAEB
 102 0054 DCFB8C42 		.ascii	"\334\373\214B/\274\373q8\347\177~\367\177\037\207\275"
 102      2FBCFB71 
 102      38E77F7E 
 102      F77F1F87 
 102      BD
 103 0065 E3347D63 		.ascii	"\3434}c\014\340\024\255h\000\262\376O\000\266\311\030"
 103      0CE014AD 
 103      6800B2FE 
 103      4F00B6C9 
 103      18
 104 0076 1FAF01E1 		.ascii	"\037\257\001\341\325\362\215 *9\352nX\373\273\321\021"
 104      D5F28D20 
 104      2A39EA6E 
 104      58FBBBD1 
 104      11
 105 0087 E506107A 		.ascii	"\345\006\020z\030\327t\354\301\357\254\310\260?;4\340"
 105      18D774EC 
 105      C1EFACC8 
 105      B03F3B34 
ARM GAS  C:\Users\IYANG~1.DES\AppData\Local\Temp\cc9lGksf.s 			page 8


 105      E0
 106 0098 AB7B2484 		.ascii	"\253{$\204\370\361\300\251\356\253.\223r\211\271\235"
 106      F8F1C0A9 
 106      EEAB2E93 
 106      7289B99D 
 107 00a8 30857594 		.ascii	"0\205u\224\362k\244 L^\217@\373Rff\312\250}(Do\366C"
 107      F26BA420 
 107      4C5E8F40 
 107      FB526666 
 107      CAA87D28 
 108 00c0 469CC132 		.ascii	"F\234\3012C\034DN\025\330\340\307z?P\0000\215\26529"
 108      431C444E 
 108      15D8E0C7 
 108      7A3F5000 
 108      308DB532 
 109 00d5 9F9E8D72 		.ascii	"\237\236\215r~T\025\216e\326>\372VY\231\261\203\362"
 109      7E54158E 
 109      65D63EFA 
 109      565999B1 
 109      83F2
 110 00e7 F836911B 		.ascii	"\3706\221\0330\344\221k\362xg\260\360{_\340>\311.m\246"
 110      30E4916B 
 110      F27867B0 
 110      F07B5FE0 
 110      3EC92E6D 
 111 00fc 262B454E 		.ascii	"&+EN\304\226\034\347@\231i\370\304U\037B?>E\377\216"
 111      C4961CE7 
 111      409969F8 
 111      C4551F42 
 111      3F3E45FF 
 112 0111 0754528C 		.ascii	"\007TR\214m}\361\0311\002\257\302g\030p\2411\203\006"
 112      6D7DF119 
 112      3102AFC2 
 112      671870A1 
 112      318306
 113 0124 D22223C3 		.ascii	"\322\"#\303\373\263\302qJ[\267s\001\315$(\012q5k(\001"
 113      FBB3C271 
 113      4A5BB773 
 113      01CD2428 
 113      0A71356B 
 114 013a 75B537D4 		.ascii	"u\2657\324\014\260L\325\322\236\002cr\345\013\370~\375"
 114      0CB04CD5 
 114      D29E0263 
 114      72E50BF8 
 114      7EFD
 115 014c C6CAC431 		.ascii	"\306\312\3041)\270\3018\365K\013\321\347\225\304\272"
 115      29B8C138 
 115      F54B0BD1 
 115      E795C4BA 
 116 015c B8BE6A2B 		.ascii	"\270\276j+\352o\313\3233\246\012)\242\365\370\\JK\342"
 116      EA6FCBD3 
 116      33A60A29 
 116      A2F5F85C 
 116      4A4BE2
 117 016f 5D3B6667 		.ascii	"];fg\033\312\314\300ab~.\231\361\005&\021\346\261W\034"
 117      1BCACCC0 
 117      61627E2E 
ARM GAS  C:\Users\IYANG~1.DES\AppData\Local\Temp\cc9lGksf.s 			page 9


 117      99F10526 
 117      11E6B157 
 118 0184 5784D492 		.ascii	"W\204\324\222Da\016c_\243\033\367t\267\211F\022\366"
 118      44610E63 
 118      5FA31BF7 
 118      74B78946 
 118      12F6
 119 0196 E377373D 		.ascii	"\343w7=R\321CE/w\256[\240\324\361\032B\212\256\305\267"
 119      52D14345 
 119      2F77AE5B 
 119      A0D4F11A 
 119      428AAEC5 
 120 01ab 274EBAD9 		.ascii	"'N\272\331\272K\225\330.\304\024\225IF\010\023p\204"
 120      BA4B95D8 
 120      2EC41495 
 120      49460813 
 120      7084
 121 01bd 8AE691FD 		.ascii	"\212\346\221\375k\243+\005\015\362\215R\341g|\341\274"
 121      6BA32B05 
 121      0DF28D52 
 121      E1677CE1 
 121      BC
 122 01ce 2BB073AD 		.ascii	"+\260s\255\251\331\351\317\272\022phx\000Gw\013\030"
 122      A9D9E9CF 
 122      BA127068 
 122      78004777 
 122      0B18
 123 01e0 4A4057B6 		.ascii	"J@W\266\320\025\252\300\015#\220G\211\342\344!\231\371"
 123      D015AAC0 
 123      0D239047 
 123      89E2E421 
 123      99F9
 124 01f2 BF3F157B 		.ascii	"\277?\025{\375\251\330\345\017\3756^|E\356\274V\356"
 124      FDA9D8E5 
 124      0FFD365E 
 124      7C45EEBC 
 124      56EE
 125 0204 BC2177A4 		.ascii	"\274!w\244\340\"\332\331\344E\251G-W\220b:\337t\256"
 125      E022DAD9 
 125      E445A947 
 125      2D579062 
 125      3ADF74AE 
 126 0218 1282367A 		.ascii	"\022\2026z\013\351\215PB\320K\035>guZ\341`\304jmi\352"
 126      0BE98D50 
 126      42D04B1D 
 126      3E67755A 
 126      E160C46A 
 127 022f EA0E87AC 		.ascii	"\352\016\207\254\346\013M]gO4\207\256\265]\211D\254"
 127      E60B4D5D 
 127      674F3487 
 127      AEB55D89 
 127      44AC
 128 0241 704BA8AD 		.ascii	"pK\250\255\375H\010<Vg\360r\207\325j\206\255\366K\301"
 128      FD48083C 
 128      5667F072 
 128      87D56A86 
 128      ADF64BC1 
ARM GAS  C:\Users\IYANG~1.DES\AppData\Local\Temp\cc9lGksf.s 			page 10


 129 0255 8E6EEB0F 		.ascii	"\216n\353\017\354]\0121"
 129      EC5D0A31 
 130              		.text
 131              		.section	.gnu.lto_cyfitter_cfg.181383ef,"",%progbits
 132 0000 789C8597 		.ascii	"x\234\205\227\177PT\327\025\307\357\271ow\331_\262T"
 132      7F5054D7 
 132      15C7EFB9 
 132      6F77D95F 
 132      B254
 133 0012 A9984D9B 		.ascii	"\251\230M\2338\222\232d\332\224\231\224?\372_\323If"
 133      38929A64 
 133      DA949994 
 133      3FFA5FD3 
 133      4966
 134 0024 3A9D6927 		.ascii	":\235i'i\235\351\217Lf\214\325M\306\231h\246J\376\350"
 134      699DE98F 
 134      4C668CD5 
 134      4DC69968 
 134      A64AFEE8 
 135 0038 1F4E1EB0 		.ascii	"\037N\036\260, (\033@%*\006\023\002\"\001\005\015AA"
 135      2C20281B 
 135      40252A06 
 135      13022201 
 135      050D4141 
 136 004c 5C04117F 		.ascii	"\\\004\021\177\360C~+\260\256\021\024\024)\260\004X"
 136      F0437E2B 
 136      B0AE1114 
 136      1429B004 
 136      58
 137 005d 05B6E7DE 		.ascii	"\005\266\347\336\373\336c\371a\372F\037\373\336\275"
 137      FBDE63F9 
 137      61FA461F 
 137      FBDEBD
 138 006c F773BEE7 		.ascii	"\367s\276\347\334s\317\275O\"\313\257\277\342\177\223"
 138      DC73CFBD 
 138      4F22CBAF 
 138      BFE27F93 
 139 007c 8D9077F1 		.ascii	"\215\220w\361/\204\021\240\356fB\342\215\024\364\342"
 139      2F8411A0 
 139      EE6642E2 
 139      8D14F4E2 
 140 008c 87043AF1 		.ascii	"\207\004:\361C'\336\324\032\365TJ\213%\262\331\220d"
 140      4327DED4 
 140      1AF5544A 
 140      8B25B2D9 
 140      9064
 141 009e 27B2D500 		.ascii	"'\262\325\000\300^\023 \237RI\2477\300\247T\217\024"
 141      C05E1320 
 141      9F5249A7 
 141      37C0A754 
 141      8F14
 142 00b0 F60FAF61 		.ascii	"\366\017\257a:N\301\355)\316\261\274\374\265,\313c\227"
 142      3A4EC1ED 
 142      29CEB1BC 
 142      FCB52CCB 
 142      6397
 143 00c2 0E3D97B4 		.ascii	"\016=\227\264.\200M~*\314C!\274L\260\317\270s\256\333"
ARM GAS  C:\Users\IYANG~1.DES\AppData\Local\Temp\cc9lGksf.s 			page 11


 143      2E804D7E 
 143      2ACC4321 
 143      BC4CB0CF 
 143      B873AEDB 
 144 00d6 6270629F 		.ascii	"bpb\237\010\321\006'\300\000\204Hs\2245O&\237\352\015"
 144      08D10627 
 144      C0008448 
 144      7394354F 
 144      269FEA0D 
 145 00ea 935E05F6 		.ascii	"\223^\005\366\2738a\372\244%\372\270,'\370\206R\257"
 145      BB3861FA 
 145      A425FAB8 
 145      2C27F886 
 145      52AF
 146 00fc 59E41CD9 		.ascii	"Y\344\034\331\351\013\006_\014P\200\"\220p0\374\312"
 146      E90B065F 
 146      0C508022 
 146      907030FC 
 146      CA
 147 010d 0EAFDA15 		.ascii	"\016\257\332\025\377\340$D\343\240\216\242\366DI\372"
 147      FFE02444 
 147      E3A08EA2 
 147      F64449FA 
 148 011d 25079C2B 		.ascii	"%\007\234+\235l\262\014\321\000\245\353\331\343\371"
 148      9D6CB20C 
 148      D100A5EB 
 148      D9E3F9
 149 012c CCC61C03 		.ascii	"\314\306\034\003{\224t\354\361\300\211\301\247\253\004"
 149      7B9474EC 
 149      F1C089C1 
 149      A7AB04
 150 013b 7EB6B0C1 		.ascii	"~\266\260\301*7\252x\035\024\013\3747`\207\022\320\014"
 150      2A37AA78 
 150      1D140BFC 
 150      37608712 
 150      D00C
 151 014d 9442F4A9 		.ascii	"\224B\364\251\325\0369\030\364{\263\033_\327\243HfS"
 151      D51E3918 
 151      F47BB31B 
 151      5FD7A348 
 151      6653
 152 015f 4F02546F 		.ascii	"O\002To\300\233!\014oaF\274\031M\274\263\231\267\333"
 152      C09B210C 
 152      6F6146BC 
 152      194DBCB3 
 152      99B7DB
 153 0172 F0852982 		.ascii	"\360\205)\202\335V\263\333\032v\213d\267\265\354\026"
 153      DD56B3DB 
 153      1A768B64 
 153      B7B5EC16 
 154 0182 C56E1B78 		.ascii	"\305n\033xwB\0060\036\030\353AJ\361\217\324\013r]0\023"
 154      77420630 
 154      1E18EB41 
 154      4AF18FD4 
 154      0B725D30 
 155 0197 587C98F9 		.ascii	"X|\230\371Xr\033.\215\265\016\350\330\013\224\377\260"
 155      58721B2E 
ARM GAS  C:\Users\IYANG~1.DES\AppData\Local\Temp\cc9lGksf.s 			page 12


 155      8DB50EE8 
 155      D80B94FF 
 155      B0
 156 01a8 BD475EC5 		.ascii	"\275G^\305\2741\217\370\252\342\271Gw\006Zn\032\371"
 156      BC318FF8 
 156      AAE2B947 
 156      77065A6E 
 156      1AF9
 157 01ba 2BC21EAF 		.ascii	"+\302\036\257\273\022R\315\271p$\336\011\001j\201S\350"
 157      BB1252CD 
 157      B97024DE 
 157      09016A81 
 157      53E8
 158 01cc CD69E60D 		.ascii	"\315i\346\015\224A.`{|AUz\030\353n\305w\345\330\322"
 158      94412E60 
 158      7B7C4155 
 158      7A18EB6E 
 158      C577E5D8 
 159 01e1 05099EEE 		.ascii	"\005\011\236\356\254U\3304]\327\227j\333\230\217\263"
 159      AC55D834 
 159      5DD7976A 
 159      DB988FB3 
 160 01f1 E46B4AB5 		.ascii	"\344kJ\265\3108~\2256\223\374\302>Ms\243\003T\372\035"
 160      C8387E95 
 160      3693FCC2 
 160      3E4D73A3 
 160      0354FA1D 
 161 0205 8F74D79D 		.ascii	"\217t\327\235c\035 \372\367\014\233Y\377p8\313\203\210"
 161      631D20FA 
 161      F70C9B59 
 161      FF7038CB 
 161      8388
 162 0217 171BAC0E 		.ascii	"\027\033\254\016\012\231~8\003\033\341[\330\210\023"
 162      0A997E38 
 162      031BE15B 
 162      D88813
 163 0226 CFE24484 		.ascii	"\317\342D\204\243P\201\351 \246Rs\007\323\003\276\343"
 163      A35081E9 
 163      20A65273 
 163      07D303BE 
 163      E3
 164 0237 F3304825 		.ascii	"\3630H%\222\026+\335\206\004o\362h\363\014\363\242&"
 164      92162BDD 
 164      86046FF2 
 164      68F30CF3 
 164      A226
 165 0249 B1FA9E49 		.ascii	"\261\372\236I\372\023\227\341M\253l3\361)\365\264\224"
 165      FA1397E1 
 165      4DAB6C33 
 165      F129F5B4 
 165      94
 166 025a CB6F38F3 		.ascii	"\313o8\363\344\371`\020\305\330\240r\245\031]\242\347"
 166      E4F96010 
 166      C5D8A072 
 166      A5195DA2 
 166      E7
 167 026b 1C1351C1 		.ascii	"\034\023Q\301E\234\007\3034\325O\243\345.\240\354\011"
ARM GAS  C:\Users\IYANG~1.DES\AppData\Local\Temp\cc9lGksf.s 			page 13


 167      459C07C3 
 167      34D54FA3 
 167      E52EA0EC 
 167      09
 168 027c BBDE6AA8 		.ascii	"\273\336j\250?iy\245\200\371x\255x\340\015#b\325\314"
 168      3F6979A5 
 168      80F978AD 
 168      78E00D23 
 168      62D5CC
 169 028f A88257B0 		.ascii	"\250\202W\260\303\301\214\216Ji\317S\314Sl\213\230\243"
 169      C3C18C8E 
 169      4A69CF53 
 169      CC536C8B 
 169      98A3
 170 02a1 C282E645 		.ascii	"\302\202\346E\004\177,\312\310\256\0046)n\326\353'P"
 170      047F2CCA 
 170      C8AE0436 
 170      296ED6EB 
 170      2750
 171 02b3 0D7BE002 		.ascii	"\015{\340\002S\204m=\303)M\272\230\022\331-\373\036"
 171      53846D3D 
 171      C3294DBA 
 171      9812D92D 
 171      FB1E
 172 02c5 A76222AE 		.ascii	"\247b\"\256\206\032\354\212B\024\261\263\275\215g\231"
 172      861AEC8A 
 172      4214B1B3 
 172      BD8D6799 
 173 02d5 01B7EC79 		.ascii	"\001\267\354y\2339u\021b\2306\002\036\330\243\012e^"
 173      9B397511 
 173      62983602 
 173      1ED8A30A 
 173      655E
 174 02e7 303D982D 		.ascii	"0=\230-\011\025e\323o\011W\014\377_\236mEy\265(\357"
 174      091565D3 
 174      6F09570C 
 174      FF5F9E6D 
 174      4579B528 
 175 02fc D233E5D5 		.ascii	"\3223\345\325-\222\227\356\232\222M\257\025\263\366"
 175      2D9297EE 
 175      9A924DAF 
 175      15B3F6
 176 030b D1548CFA 		.ascii	"\321T\214\372\032\250\207\230\011\236\002p\031^\343"
 176      1AA88798 
 176      099E0270 
 176      195EE3
 177 031a 8A8EC708 		.ascii	"\212\216\307\010Aa\317\024\264TA\303\217*\270\362L\005"
 177      4161CF14 
 177      B45441C3 
 177      8F2AB8F2 
 177      4C05
 178 032c 57A30234 		.ascii	"W\243\0024\022\032\231\002`\012\256\012\005\336\344"
 178      121A9902 
 178      600AAE0A 
 178      05DEE4
 179 033b 97840223 		.ascii	"\227\204\002#\212\010\231\335\275\371eyV\351m\236F\325"
 179      8A0899DD 
ARM GAS  C:\Users\IYANG~1.DES\AppData\Local\Temp\cc9lGksf.s 			page 14


 179      BDF96579 
 179      56E96D9E 
 179      46D5
 180 034d A3E977C3 		.ascii	"\243\351w\303De\250\276\352\360hid\200k+\026\206\353"
 180      4465A8BE 
 180      EAF06869 
 180      64806B2B 
 180      1686EB
 181 0360 108D21E6 		.ascii	"\020\215!\346\313\247?K\005v\364\334s\351\244\277p\340"
 181      CBA73F4B 
 181      0576F4DC 
 181      73E9A4BF 
 181      70E0
 182 0372 81F9408D 		.ascii	"\201\371@\215i\005\340O\341\306\212\300&\0064\222>p"
 182      6905E04F 
 182      E1C68AC0 
 182      26063492 
 182      3E70
 183 0384 79E64C8B 		.ascii	"y\346L\213\262\224\033\300ff\223\247\251\237\302\322"
 183      B2941BC0 
 183      666693A7 
 183      A99FC2D2 
 184 0394 B20ACD3C 		.ascii	"\262\012\315<\207[\360\216-\307\332\367\227R\214r\012"
 184      875BF08E 
 184      2DC7DAF7 
 184      97528C72 
 184      0A
 185 03a5 0BE75A3F 		.ascii	"\013\347Z?\245\274\031Z1eP4D\333\321R\200F\361\305\245"
 185      A5BC195A 
 185      31655034 
 185      44DBD152 
 185      8046F1C5 
 186 03ba 138B2B31 		.ascii	"\023\213+1\323\345m\2560\260\2650M\315\270\012\020s"
 186      D3E56DAE 
 186      30B0B530 
 186      4DCDB80A 
 186      1073
 187 03cc F37041A2 		.ascii	"\363pA\242\215/F,{7y\261\240\352Z\235f\005\007\207\353"
 187      8D2F462C 
 187      7B3779B1 
 187      A0EA5A9D 
 187      66050787 
 188 03e1 09EE1012 		.ascii	"\011\356\020\022\206!\202\210\327@:\301\331\224\030"
 188      86218288 
 188      D7403AC1 
 188      D99418
 189 03f0 2E48C0C7 		.ascii	".H\300\307\341u\037\200\255gzB\302\221\272\312\337\340"
 189      E1751F80 
 189      AD677A42 
 189      C291BACA 
 189      DFE0
 190 0402 5003AB78 		.ascii	"P\003\253x\254\300\235\236\213e\275\321b\371\335\257"
 190      ACC09D9E 
 190      8B65BDD1 
 190      62F9DDAF 
 191 0412 0EE97835 		.ascii	"\016\351x5\223Q</p\023\223^\217i\241\242\265i\025\255"
 191      93513C2F 
ARM GAS  C:\Users\IYANG~1.DES\AppData\Local\Temp\cc9lGksf.s 			page 15


 191      7013935E 
 191      8F69A1A2 
 191      B56915AD 
 192 0426 5D54B4DC 		.ascii	"]T\264\334\344\251Gz^\321\330\036\024N\240\003[y\331"
 192      E4A9477A 
 192      5ED1D81E 
 192      144EA003 
 192      5B79D9
 193 0439 9CD729D4 		.ascii	"\234\327)\324\366\261a\267\250\221r\336\005A\315iz\270"
 193      F6B161B7 
 193      A89172DE 
 193      0541CD69 
 193      7AB8
 194 044b 6D01DAA9 		.ascii	"m\001\332\251A\273\004\364\263\303g\312m\012t@G\240"
 194      41BB04F4 
 194      B3C367CA 
 194      6D0A7440 
 194      47A0
 195 045d 5B61BAEB 		.ascii	"[a\272\353\365\012\263wfd\226\3573\346<\225\351zPXa"
 195      F50AB377 
 195      666496EF 
 195      33E63C95 
 195      E97A5058 
 196 0472 5D80F668 		.ascii	"]\200\366h\320[\010\325\020\255\227U\204gv$ST\363\323"
 196      D05B08D5 
 196      10AD9755 
 196      84677624 
 196      5354F3D3 
 197 0486 2AC27BEC 		.ascii	"*\302{\354H\211e\001q[C\364\206 \246\366N\374CD\327"
 197      48896501 
 197      715B43F4 
 197      8620A6F6 
 197      4EFC4344 
 198 049b 86434E97 		.ascii	"\206CN\227\225\33501\312:\331\247P\264\365\275N,\367"
 198      95DD3031 
 198      CA3AD9A7 
 198      50B4F5BD 
 198      4E2CF7
 199 04ae 1C7F55B8 		.ascii	"\034\177U\270\012}\016\372\020\332\317\241^\204\"0q"
 199      0A7D0EFA 
 199      10DACFA1 
 199      5E842230 
 199      71
 200 04bf 5299F608 		.ascii	"R\231\366\010A<\334=8)\261\341&\314\322;\302&\356IB"
 200      413CDC3D 
 200      3829B1E1 
 200      26CCD23B 
 200      C226EE49 
 201 04d4 B466CEBE 		.ascii	"\264f\316\276\334\234}\271\271\347\301\207\346\356r"
 201      DC9C7DB9 
 201      B9E7C187 
 201      E6EE72
 202 04e3 73DFF375 		.ascii	"s\337\363u\033!\\\270\366Oas5\216\350~PP`\345z\343U"
 202      1B215CB8 
 202      F64F6173 
 202      358EE87E 
 202      505060E5 
ARM GAS  C:\Users\IYANG~1.DES\AppData\Local\Temp\cc9lGksf.s 			page 16


 203 04fa E6F14735 		.ascii	"\346\361G51\013\222\357i\222\007\024\3113\212\3445\202"
 203      310B92EF 
 203      69920714 
 203      C9338AE4 
 203      3582
 204 050c 50DC39D3 		.ascii	"P\3349\323I\271\344:L\325A\256Ys+\022\273\261\005y\275"
 204      49B9E43A 
 204      4CD541AE 
 204      59732B12 
 204      BBB10579 
 205 0521 B2DFCCFB 		.ascii	"\262\337\314\373D\022\270\277\304-M\202}E\011\317\303"
 205      4412B8BF 
 205      C42D4D82 
 205      7D4509CF 
 205      C3
 206 0532 03CD8D21 		.ascii	"\003\315\215!\356F\244p\243Mqc\355\217\305yxI\234\243"
 206      EE46A470 
 206      A34D7163 
 206      ED8FC579 
 206      78499CA3 
 207 0546 44FFFEDA 		.ascii	"D\377\376\332\272\333|/\306c\001<\\\"\350\231Q|\304"
 207      BADB7C2F 
 207      C663013C 
 207      5C22E899 
 207      517CC4
 208 0559 CD47F15C 		.ascii	"\315G\361\\\032k\371\205r2\350\035\312z\014<\227R\260"
 208      1A6BF985 
 208      7232E81D 
 208      CA7A0C3C 
 208      9752B0
 209 056c 1272FD47 		.ascii	"\022r\375G\273\277\272\034\222K#Z.=\0269\236u\370\351"
 209      BBBFBA1C 
 209      924B235A 
 209      2E3D1639 
 209      9E75F8E9 
 210 0580 F7EAC2F1 		.ascii	"\367\352\302\361au\030Us\274S\257@\223S\277\273e\025"
 210      61751855 
 210      73BC53AF 
 210      409353BF 
 210      BB6515
 211 0593 EBC6A940 		.ascii	"\353\306\251@\007G\002\023!\347\213\377j\3201\001\275"
 211      07470213 
 211      21E78BFF 
 211      6AD03101 
 211      BD
 212 05a4 91F6C5E7 		.ascii	"\221\366\305\347|\"\254\036\234\210q5\3475d\177}\177"
 212      7C22AC1E 
 212      9C887135 
 212      E735647F 
 212      7D7F
 213 05b6 65B8D0A9 		.ascii	"e\270\320\251\"\317\371\017\206.\360\011\015\351\027"
 213      22CFF90F 
 213      862EF009 
 213      0DE917
 214 05c5 C82FF71D 		.ascii	"\310/\367\035iP\327\242\0173rR\325\331\245BKG\223J\305"
 214      6950D7A2 
 214      0F337252 
ARM GAS  C:\Users\IYANG~1.DES\AppData\Local\Temp\cc9lGksf.s 			page 17


 214      D5D9A542 
 214      4B47934A 
 215 05da FA4E57A1 		.ascii	"\372NW\241yG\032\306m\013\320\0374\350\224\200\376p"
 215      79471AC6 
 215      6D0BD01F 
 215      34E89480 
 215      FE70
 216 05ec 21386156 		.ascii	"!8aV\240(tZ\025\332\2552\217\177\235\343\024\001\225"
 216      A028745A 
 216      15DAAD32 
 216      8F7F9DE3 
 216      140195
 217 05ff 5D0AF36E 		.ascii	"]\012\363n^\362\011i\2019\2431\003\202\231\357\317\377"
 217      5EF20969 
 217      8139A331 
 217      038299EF 
 217      CFFF
 218 0611 862F0DEB 		.ascii	"\206/\015\353\357\011<QU\366\251\304\252\244}\335f\341"
 218      EF093C51 
 218      55F6A9C4 
 218      AAA47DDD 
 218      66E1
 219 0623 BA4A7CF8 		.ascii	"\272J|\370e\365\277\027\200O5\340\254\000N\234\231\372"
 219      65F5BF17 
 219      804F35E0 
 219      AC004E9C 
 219      99FA
 220 0635 56F5FC7D 		.ascii	"V\365\374}\002s\252H\0159Q\324\326\"\212P\216\212L~"
 220      0273AA48 
 220      0D3951D4 
 220      D6228A50 
 220      8E8A4C7E 
 221 0649 DCD6A75B 		.ascii	"\334\326\247[`\316k\314\240`^\311\035*\347\025\326\212"
 221      60CE6BCC 
 221      A0605EC9 
 221      1D2AE715 
 221      D68A
 222 065b 6ECBB864 		.ascii	"n\313\270d\373 \321\363d-?\210-\3359~\346\307\243\027"
 222      FB20D1F3 
 222      642D3F88 
 222      2DDD397E 
 222      E6C7A317 
 223 066f 8178BA07 		.ascii	"\201x\272\007\317s?W\316\242\322\342\275\311\035\305"
 223      CF733F57 
 223      CEA2D2E2 
 223      BDC91DC5 
 224 067f 0F717EAA 		.ascii	"\017q~\252[\266%%P\266%%\362\203H\356\027\237\377Y\224"
 224      5BB62525 
 224      50B62525 
 224      F28348EE 
 224      179FFF59 
 225 0694 3AD9230E 		.ascii	":\331#\016\256\007\263s\032\214Lhv\274\221)uRUi\022"
 225      AE07B373 
 225      1A8C4C68 
 225      76BC9129 
 225      75525569 
 226 06a9 E54AF797 		.ascii	"\345J\367\227\346\373\205\367\022\001\027U\3029()\304"
ARM GAS  C:\Users\IYANG~1.DES\AppData\Local\Temp\cc9lGksf.s 			page 18


 226      E6FB85F7 
 226      12011755 
 226      C2392829 
 226      C4
 227 06ba C21B2979 		.ascii	"\302\033)y\341\012\262^ \247\306\316\326\352C\220\311"
 227      E10AB25E 
 227      20A7C6CE 
 227      D6EA4390 
 227      C9
 228 06cb 1A320591 		.ascii	"\0322\005\221\032\243Uc\024\36447\332\224\355fH0\262"
 228      1AA35563 
 228      14F43437 
 228      DA94ED66 
 228      4830B2
 229 06de 3BEB8A21 		.ascii	";\353\212!\204\221\2521\366\012Y\231\363\203N5sd\331"
 229      8491AA31 
 229      F60A5999 
 229      F3834E35 
 229      7364D9
 230 06f1 48204D95 		.ascii	"H M\225v_\305f\234j\025\213\000sG\301zj\317\015\330"
 230      765FC566 
 230      9C6A158B 
 230      007347C1 
 230      7A6ACF0D 
 231 0706 42B0E91A 		.ascii	"B\260\351\032v\037\223&\253\3224\306pIE\215\262g\035"
 231      761F9326 
 231      ABD234C6 
 231      7049458D 
 231      B2671D
 232 0719 9D158CA3 		.ascii	"\235\025\214\243E\235'\255!\214\375\032#\2031\312\225"
 232      459D27AD 
 232      218CFD1A 
 232      238331CA 
 232      95
 233 072a 0D5A8C7F 		.ascii	"\015Z\214\177rfP6J\233\370A!{o\311y\345(r\261\360\312"
 233      72665036 
 233      4A9BF841 
 233      217B6FC9 
 233      79E52872 
 234 0741 A28F2A37 		.ascii	"\242\217*7]\376Q\365\031\215\346\2736/p\367/\276\276"
 234      5DFE51F5 
 234      198DE6BB 
 234      362F70F7 
 234      2FBEBE
 235 0754 78C27333 		.ascii	"x\302s3\200\365\340\023\353\307\355\177\311\201\232"
 235      80F5E013 
 235      EBC7ED7F 
 235      C9819A
 236 0763 7DD44026 		.ascii	"}\324@&\237\371,\212\265\216\035e\212d9\211\207\354"
 236      9FF92C8A 
 236      B58E1D65 
 236      8A643989 
 236      87EC
 237 0775 05397968 		.ascii	"\0059yh\311g\313\013|\317\230\363:\017\2315\327^\204"
 237      C967CB0B 
 237      7CCF98F3 
 237      3A0F9935 
ARM GAS  C:\Users\IYANG~1.DES\AppData\Local\Temp\cc9lGksf.s 			page 19


 237      D75E84
 238 0788 6C74ED00 		.ascii	"lt\355\000\333O\340 \272\306OY\201\026+#2\003H\345\345"
 238      DB4FE020 
 238      BAC64F59 
 238      81162B23 
 238      320348E5 
 239 079d D4357FF1 		.ascii	"\3245\177\361\267\302\312\006|\305'\202\005@\353\265"
 239      B7C2CA06 
 239      7CC52782 
 239      0540EBB5 
 240 07ad 81887389 		.ascii	"\201\210s\211\362\300\312\353x\303K\254=T\224Y\023\265"
 240      F2C0CAEB 
 240      78C34BAC 
 240      3D549459 
 240      13B5
 241 07bf 5885050E 		.ascii	"X\205\005\016i\001\316\241\254\350n ^\210\367\034\370"
 241      6901CEA1 
 241      ACE86E20 
 241      5E88F71C 
 241      F8
 242 07d0 BBFA7936 		.ascii	"\273\372y6\200\207\235$;\236a7\376\301\261\323\261k"
 242      80879D24 
 242      3B9E6137 
 242      FEC1B1D3 
 242      B16B
 243 07e2 4B9C63DB 		.ascii	"K\234c\333\346M\037\177\262k\253\343\275w6}\374f\354"
 243      E64D1F7F 
 243      B26BABE3 
 243      BD77367D 
 243      FC66EC
 244 07f5 7B5BFFF3 		.ascii	"{[\377\363\301\366\2708\307\256\315[?\370\360\327[\011"
 244      C1F6B838 
 244      C7AECD5B 
 244      3FF8F0D7 
 244      5B09
 245 0807 6C37EE72 		.ascii	"l7\356r|\370\267-\037}\3420\277\371\316\246?\276\265"
 245      7CF8B72D 
 245      1F7DE230 
 245      BFF9CEA6 
 245      3FBEB5
 246 081a 7EFDFAED 		.ascii	"~\375\372\355\304\212\215\233w8v\354v\304m\216\243;"
 246      C48A8D9B 
 246      773876EC 
 246      76C46D8E 
 246      A33B
 247 082c 76C36ED8 		.ascii	"v\303n\330\031\346\330\271\345_\0379\266\375\017g\006"
 247      19E6D8B9 
 247      E55F1F39 
 247      B6FD0F67 
 247      06
 248 083d 797E     		.ascii	"y~"
 249              		.text
 250              		.section	.gnu.lto_.symbol_nodes.181383ef,"",%progbits
 251 0000 789C4DC8 		.ascii	"x\234M\310;\016\202@\024\205\341\177\35600\203\370\330"
 251      3B0E8240 
 251      1485E17F 
 251      EE303083 
ARM GAS  C:\Users\IYANG~1.DES\AppData\Local\Temp\cc9lGksf.s 			page 20


 251      F8D8
 252 0012 014B7169 		.ascii	"\001Kqi\227\202Dceb\255\241`)\326V.\300W\311\032\214"
 252      97824463 
 252      6562ADA1 
 252      6029D656 
 252      2EC057C9 
 253 0028 0135B9A7 		.ascii	"\0015\271\247\371\363\035\017<\371M\202\302\376\002"
 253      F9F31D0F 
 253      3CF94D82 
 253      C2FE02
 254 0037 AA1CBB6D 		.ascii	"\252\034\273m\205\024\352\376\307\251\213HT\261\016"
 254      8514EAFE 
 254      C7A98B48 
 254      54B10E
 255 0046 894ED4BB 		.ascii	"\211N\324\273\225\372\357M\323D\334R3\313\205\006\313"
 255      95FAEF4D 
 255      D344DC52 
 255      33CB8506 
 255      CB
 256 0057 B9E69695 		.ascii	"\271\346\226\225\026\2263\215\226\245&CO\342|{;O\344"
 256      1696338D 
 256      96A52643 
 256      4FE27C7B 
 256      3B4FE4
 257 006a 35B5A0BD 		.ascii	"5\265\240\275\217\315\351\247\006\332\335P{2\372\261"
 257      8FCDE9A7 
 257      06DADD50 
 257      7B32FAB1 
 258 007a 52D26EAE 		.ascii	"R\322n\256k/\3608\0145\037\2311:\367"
 258      6B2FF038 
 258      0C351F99 
 258      313AF7
 259              		.text
 260              		.section	.gnu.lto_.refs.181383ef,"",%progbits
 261 0000 789C6366 		.ascii	"x\234cf``\340d\200\000&&\006fv\006f\016\006\000\001"
 261      6060E064 
 261      80002626 
 261      06667606 
 261      660E0600 
 262 0015 5D0026   		.ascii	"]\000&"
 263              		.text
 264              		.section	.gnu.lto_.decls.181383ef,"",%progbits
 265 0000 789CAD57 		.ascii	"x\234\255WkP\024W\026\356{{\200\231f\000K\263&E\245"
 265      6B501457 
 265      16EE7B7B 
 265      80996600 
 265      4BB32645 
 266 0015 4A34BB6C 		.ascii	"J4\273l\036j\305\307\272q\267\266\222-\362pS\311\352"
 266      1E6AC5C7 
 266      BA71B7B6 
 266      922DF270 
 266      53C9EA
 267 0028 C64A6577 		.ascii	"\306JewC\225\031\207\206L\011\014\316\014\225b\177\265"
 267      43951987 
 267      864C090C 
 267      CE0C9562 
 267      7FB5
ARM GAS  C:\Users\IYANG~1.DES\AppData\Local\Temp\cc9lGksf.s 			page 21


 268 003a 0C848751 		.ascii	"\014\204\207Q\021%\202JD\004y\212(\240<\006y%\2121("
 268      1125824A 
 268      4404798A 
 268      28A03C06 
 268      79258A31 
 269 004f 242C2A11 		.ascii	"$,*\021\031\304\027\202\010>A\223\314\236{o\367\314"
 269      19C41782 
 269      083E4193 
 269      CC9E7B6F 
 269      F7CC
 270 0061 B401931F 		.ascii	"\264\001\223\037\333\305\241\347\336\376\3569\337y\334"
 270      DBC5A1E7 
 270      DEFEEE39 
 270      DF79DC
 271 0070 D3B7798E 		.ascii	"\323\267y\216\343\356\"\216s\301\205fr\334 \3468\015"
 271      E3EE228E 
 271      73C18566 
 271      72DC20E6 
 271      380D
 272 0082 CCAD02E1 		.ascii	"\314\255\002\341A*@j@fs\354\022@\216\203\234\001\351"
 272      412A406A 
 272      406673EC 
 272      12408E83 
 272      9C01E9
 273 0095 063907D2 		.ascii	"\0069\007\322\0172\010r\015d\010d\230\000\021\375\343"
 273      0F320872 
 273      0D640864 
 273      980011FD 
 273      E3
 274 00a6 9E459CEA 		.ascii	"\236E\234\352\"kg\312\372\347\022\201\347s@\346\201"
 274      226B67CA 
 274      FAE71281 
 274      E77340E6 
 274      81
 275 00b7 1C81F173 		.ascii	"\034\201\361s\210\331\033\000\371-\374\276\002\367P"
 275      88D91B00 
 275      F92DFCBE 
 275      02F750
 276 00c6 B8FF0EE4 		.ascii	"\270\377\016\344\367 }0~\0361^=\262N?Y\357\260l\377"
 276      F7207D30 
 276      7E1E315E 
 276      3DB24E3F 
 276      59EFB06C 
 277 00db 9ACCA75F 		.ascii	"\232\314\247_\346\367\370E\270\373\313\034\276\006\011"
 277      E6F7F845 
 277      B8FBCB1C 
 277      BE0609
 278 00ea 04D1CB7E 		.ascii	"\004\321\313~*\266f?\306Ov\211\256}\374\"q\010\231F"
 278      2AB6663F 
 278      C64F7689 
 278      AE7DFC22 
 278      71089946 
 279 00fe DFDB202B 		.ascii	"\337\333 +\345\347+\3448*:\211~\001\356z\220\027@^\004"
 279      E5E72BE4 
 279      382A3A89 
 279      7E01EE7A 
 279      9017405E 
ARM GAS  C:\Users\IYANG~1.DES\AppData\Local\Temp\cc9lGksf.s 			page 22


 280 0113 99051208 		.ascii	"\231\005\022\010\362\022\310|\220{\200Y\000\367\207"
 280      F212C87C 
 280      907B8059 
 280      00F787
 281 0122 705F02F7 		.ascii	"p_\002\367\305 KA^\366\212\231\302\031R\307\351\340"
 281      C5204B41 
 281      5EF68A99 
 281      C21952C7 
 281      E9E0
 282 0134 AE05F195 		.ascii	"\256\005\361\225y\375\0311\342$>\177A\214\377Ty\031"
 282      79FD1931 
 282      E2243E7F 
 282      418CFF54 
 282      7919
 283 0146 C7E8D4A5 		.ascii	"\307\350\324\245\211;\372\353\030\005\0123\310p\347"
 283      893BFAEB 
 283      18050A33 
 283      C870E7
 284 0155 D92B7779 		.ascii	"\331+wy\030\352\005L\206\271\267G\035:\036#\362{_\366"
 284      18EA054C 
 284      86B9B747 
 284      1D3A1E23 
 284      F27B5FF6 
 285 0169 40B730BF 		.ascii	"@\2670\277T\222\244T\251\271\035yTl\330\337\360\231"
 285      5492A454 
 285      A9B91D79 
 285      546CD8DF 
 285      F099
 286 017b 1FAC0911 		.ascii	"\037\254\011\021\350p\307\360D\265\226\016].\036&\360"
 286      E870C7F0 
 286      44B5960E 
 286      5D2E1E26 
 286      F0
 287 018c A3C18A22 		.ascii	"\243\301\212\"_\024*\024\300\322\261\342\333\275\317"
 287      5F142A14 
 287      C0D2B1E2 
 287      DBBDCF
 288 019b 4A920655 		.ascii	"J\222\006U \001\225 \036\225\242\371\204\034YK\256T"
 288      20019520 
 288      1E95A2F9 
 288      841C594B 
 288      AE54
 289 01ad 494A9424 		.ascii	"IJ\224$\273\344S\034\310\241\"\024\214\212Q0\207\016"
 289      BBE4531C 
 289      C8A12214 
 289      8C8A5130 
 289      870E
 290 01bf A0504050 		.ascii	"\240P@P,*\203\311r2\011\032\300Z]\305\335\016\177\312"
 290      2C2A83C9 
 290      7232091A 
 290      C05A5DC5 
 290      DD0E7FCA 
 291 01d3 3F8418AF 		.ascii	"?\204\030\257\317l\317\366\245\3745d8p\356\254\303\217"
 291      CF6CCFF6 
 291      A5FC3564 
 291      3870EEAC 
 291      C38F
ARM GAS  C:\Users\IYANG~1.DES\AppData\Local\Temp\cc9lGksf.s 			page 23


 292 01e5 5F8CBC69 		.ascii	"_\214\274i\316e4\373wM\026\350\350\220\354\202 B\264"
 292      CE6534FB 
 292      774D16E8 
 292      E890EC82 
 292      2042B4
 293 01f8 A135B34B 		.ascii	"\2415\263K\220\211\346\325\007 T\003$\017yH\316\365"
 293      9089E6D5 
 293      07205403 
 293      240F7948 
 293      CEF5
 294 020a 26996197 		.ascii	"&\231a\227t\355@\362 \360\251$|\252\201\344\\\231\344"
 294      74ED40F2 
 294      20F0A924 
 294      7CAA81E4 
 294      5C99E4
 295 021d 6198AC22 		.ascii	"a\230\254\"\2235\224d\303\243K\335\232\247\263@-Y6C"
 295      93359464 
 295      C3A34BDD 
 295      9AA7B340 
 295      2D593643 
 296 0231 8356CD76 		.ascii	"\203V\315v\257\343\320\021\3644\374\377P\303\242yu,"
 296      AFE3D011 
 296      F434FCFF 
 296      50C3A279 
 296      752C
 297 0243 F90B9E5F 		.ascii	"\371\013\236_N)\357i/\031\301\374\353\364w{Y\356G\374"
 297      4E29EF69 
 297      2F19C1FC 
 297      EBF4777B 
 297      59EE47FC 
 298 0257 3BE4A766 		.ascii	";\344\247fpw\345\221 \024\032\034L\231\246J\257\241"
 298      7077E591 
 298      20141A1C 
 298      4C99A64A 
 298      AFA1
 299 0269 46205A87 		.ascii	"F Z\207x\257\324f\303\374\304\253\344\001\374\324\322"
 299      78AFD466 
 299      C3FCC4AB 
 299      E401FCD4 
 299      D2
 300 027a 3BA53D96 		.ascii	";\245=\226)\361\317ph~0z\001\350\325\003g\262\226\222"
 300      29F1CF70 
 300      687E307A 
 300      01E8D503 
 300      67B29692 
 301 028e 7600A306 		.ascii	"v\000\243\006`\004\306\256\035\033\2210\215\352*2\334"
 301      6004C6AE 
 301      1D1B9130 
 301      8DEA2A32 
 301      DC
 302 029f F470BC23 		.ascii	"\364p\274#\220FU \303s\355;\376@G:\032\362{\2376\360"
 302      90465520 
 302      C373ED3B 
 302      FE40473A 
 302      1AF27B9F 
 303 02b5 42AAEC1C 		.ascii	"B\252\354\034\304\004\036xy\327\002\2269\364|0jf\252"
 303      C4041E78 
ARM GAS  C:\Users\IYANG~1.DES\AppData\Local\Temp\cc9lGksf.s 			page 24


 303      79D70296 
 303      39F47C30 
 303      6A66AA
 304 02c8 87D24B72 		.ascii	"\207\322Kr\360\314\014\012\227\244\020D\355\037\003"
 304      F0CC0C0A 
 304      97A41044 
 304      ED1F03
 305 02d7 781385B7 		.ascii	"x\023\205\267\222~\304\026\021\364\227\273\316l\345"
 305      927EC416 
 305      11F497BB 
 305      CE6CE5
 306 02e6 E7FC2357 		.ascii	"\347\374#W\312\016\241\217`\252o\240\265S\243\201\262"
 306      CA0EA18F 
 306      60AA6FA0 
 306      B553A381 
 306      B2
 307 02f7 476D680E 		.ascii	"Gmh\016Ke\337\344]-\314\240Z\310\325\227HC'\217\017"
 307      4B65DFE4 
 307      5D2DCCA0 
 307      5AC8D597 
 307      4843278F 
 308 030c 9F6E4621 		.ascii	"\237nF!_H\315\225c\216\266\012\323V\273T 9]\25694\336"
 308      5F48CD95 
 308      638EB60A 
 308      D356BB54 
 308      20395DAE 
 309 0323 E8A89255 		.ascii	"\350\250\222U\364\025\340\351\220j\203\211\343(\004"
 309      F415E0E9 
 309      906A8389 
 309      E32804
 310 0332 96F734A5 		.ascii	"\226\3674\245\244hy;R\225\316lV:\233O\355l\341\351\320"
 310      A468793B 
 310      5295CE6C 
 310      563A9B4F 
 310      ED6CE1E9 
 311 0347 451EE3F3 		.ascii	"E\036\343\363\347\267O\362H\010\235\"\300\247 \300\263"
 311      E7B74FF2 
 311      48089D22 
 311      C0A720C0 
 311      B3
 312 0358 E5F8B683 		.ascii	"\345\370\266\203\223'\301I\266\017\306\330>\370\032"
 312      9327C149 
 312      B60FC6D8 
 312      3EF81A
 313 0367 BC3FE129 		.ascii	"\274?\341)\261\331\202{[e$\267d0?\011\346CZ\317\367"
 313      B1D9827B 
 313      5B6524B7 
 313      64303F09 
 313      E6435ACF 
 314 037c 5C038578 		.ascii	"\\\003\205x\332B\352\240\205\364\015\222+)\247\2708"
 314      DA42EAA0 
 314      85F40D92 
 314      2B29A7B8 
 314      38
 315 038d C5974F63 		.ascii	"\305\227Oc.\2144M\366h \034N\022\216\237\026\345Hy\211"
 315      2E8C344D 
 315      F668201C 
ARM GAS  C:\Users\IYANG~1.DES\AppData\Local\Temp\cc9lGksf.s 			page 25


 315      4E128E9F 
 315      16E54879 
 316 03a2 D24FD0FD 		.ascii	"\322O\320\3751Y\205N\273\031p\3447k|gh \266\017\325"
 316      3159854E 
 316      BB1970E4 
 316      376B7C67 
 316      6820B60F 
 317 03b7 D931BF87 		.ascii	"\3311\277\207iyb:\272\246J\307\267r:2\317m\312\011\000"
 317      6979623A 
 317      BAA64AC7 
 317      B7723A32 
 317      CF6DCA09 
 318 03cc FB799579 		.ascii	"\373y\225y\216\022\337v\251\331\345z\225f\242\323\235"
 318      8E12DF76 
 318      A9D9E57A 
 318      9566A2D3 
 318      9D
 319 03dd 89EF4826 		.ascii	"\211\357H&\310\260K\316D7%\340(\2701\352O\015T\270\343"
 319      C8B04BCE 
 319      443725E0 
 319      28B831EA 
 319      4F0D54B8 
 320 03f2 D05F73FF 		.ascii	"\320_s\377\2500m\034zh\034\376\253\304a\333\200s\247"
 320      A8306D1C 
 320      7A681CFE 
 320      ABC461DB 
 320      8073A7
 321 0405 0F5FCE3C 		.ascii	"\017_\316<\330x\377\342\035R\026Nil4yty\216\264\227"
 321      D878FFE2 
 321      1D52164E 
 321      696C3479 
 321      74798EB4 
 322 041a C581AE42 		.ascii	"\305\201\256Bg\275\342pV\211\3039J#k\227\275/\210\357"
 322      67BDE270 
 322      5689C339 
 322      4A236B97 
 322      BD2F88EF 
 323 042e A15A70F7 		.ascii	"\241Zp\367\310\351\\\275\273\245\335\035\374\247\035"
 323      C8E95CBD 
 323      BBA5DD1D 
 323      FCA71D
 324 043d 36E1F740 		.ascii	"6\341\367@\357\374\257\355\026\275St\013\322\177s\316"
 324      EFFCAFED 
 324      16BD5374 
 324      0BD27F73 
 324      CE
 325 044e 4B883A5B 		.ascii	"K\210:[\343v\266\374\366\225Q\177og\211!\217\267}\324"
 325      E376B6FC 
 325      F695517F 
 325      6F678921 
 325      8FB77DD4 
 326 0462 DB0B8AB7 		.ascii	"\333\013\212\267=\207[\3535|?\363v\333\320A\226u\360"
 326      3D875BEB 
 326      357C3FF3 
 326      76DBD041 
 326      9675F0
 327 0475 F6ABFCF5 		.ascii	"\366\253\374\365[\355\031\312&\200U\350\242\227\267"
ARM GAS  C:\Users\IYANG~1.DES\AppData\Local\Temp\cc9lGksf.s 			page 26


 327      5BED19CA 
 327      268055E8 
 327      A297B7
 328 0484 17156FFB 		.ascii	"\027\025o\373\251\267S\361\270\336\351X0m\314\007(\013"
 328      A9B753F1 
 328      B8DEE958 
 328      306DCC07 
 328      280B
 329 0496 A7C26224 		.ascii	"\247\302b$\275\357\230\226\037c,\312&\273\313\002(\013"
 329      BDEF9896 
 329      1F632CCA 
 329      26BBCB02 
 329      280B
 330 04a8 E78536B1 		.ascii	"\347\2056\2615I\372\201\274\031\310\022t\311\213\302"
 330      3549FA81 
 330      BC19C812 
 330      74C98BC2 
 331 04b8 2585C2E0 		.ascii	"%\205\302\340\264\024\276\272X\264%\320\233C\215*\024"
 331      B414BEBA 
 331      58B425D0 
 331      9B438D2A 
 331      14
 332 04c9 572889CB 		.ascii	"W(\211\313\012\211\246\346\015\035:>\231\275\276\252"
 332      0A89A6E6 
 332      0D1D3A3E 
 332      99BDBEAA 
 333 04d9 377C9FE5 		.ascii	"7|\237\345\303B\321Xr\343#\257P\300*t\325\213\307U\205"
 333      C342D158 
 333      72E323AF 
 333      50C02A74 
 333      D58BC755 
 334 04ee C735CAA3 		.ascii	"\3075\312\243w\363\303\016\201obZ\022\2178\222\335\001"
 334      77F3C30E 
 334      816F625A 
 334      128F3892 
 334      DD01
 335 0500 55950FF1 		.ascii	"U\225\017\361\346\272\227\226\353\212\226!\252\305y"
 335      E6BA9796 
 335      EB8A9621 
 335      AAC579
 336 050f 72B000F1 		.ascii	"r\260\000\361\035L\313\310\356c\275\202\314e\350\232"
 336      1D4CCBC8 
 336      EE63BD82 
 336      CC65E89A 
 337 051f 3717B223 		.ascii	"7\027\262#nxi\271\241h\031\246Z\032\013\332\306t\374"
 337      6E7869B9 
 337      A16819A6 
 337      5A1A0BDA 
 337      C674FC
 338 0532 45A6A57E 		.ascii	"E\246\245~\364\302\203@\376*\033\334\314\257\273\251"
 338      F4C28340 
 338      FE2A1BDC 
 338      CCAFBBA9 
 339 0542 9F338A73 		.ascii	"\2373\212s%-\365\375\321\336\302}<\215\336\250\274-"
 339      252DF5FD 
 339      D1DEC27D 
 339      3C8DDEA8 
ARM GAS  C:\Users\IYANG~1.DES\AppData\Local\Temp\cc9lGksf.s 			page 27


 339      BC2D
 340 0554 B7176D39 		.ascii	"\267\027m9\034@\266\345M\320\177K\336\226\235\367J\022"
 340      1C40B6E5 
 340      4DD07F4B 
 340      DE969DF7 
 340      4A12
 341 0566 05323902 		.ascii	"\00529\002\206\320\030\242Qv\354?\344\303\217aU\353"
 341      86D018A2 
 341      5176EC3F 
 341      E4C38F61 
 341      55EB
 342 0578 5BA17E6B 		.ascii	"[\241~k\256\360\2745\317\224U\015\350\225\356\367\263"
 342      AEF0BC35 
 342      CF94550D 
 342      E895EEF7 
 342      B3
 343 0589 3ABF0F75 		.ascii	":\277\017u\276B\256\363;0yWi\200\2676\016'$\302\256"
 343      BE42AEF3 
 343      3B307957 
 343      6980B736 
 343      0E2724C2 
 344 059e B90719BC 		.ascii	"\271\007\031\274\355\3315+<\015pdr\357-=u\341\236\273"
 344      EDD9352B 
 344      3C0D7064 
 344      72EF2D3D 
 344      75E19EBB 
 345 05b2 000EE477 		.ascii	"\000\016\344w\225\262\271\267\005\364\200\321}p\"\367"
 345      95B2B9B7 
 345      05F480D1 
 345      7D7022F7 
 346 05c2 800F9D5B 		.ascii	"\200\017\235[\251G\023l\356T\377\217\006\357:\201'2"
 346      A947136C 
 346      EE54FF8F 
 346      06EF3A81 
 346      2732
 347 05d4 25344EDA 		.ascii	"%4N\332\314CZ)\223J\245\014\3569Q\343\303\217\363\324"
 347      CC435A29 
 347      934AA50C 
 347      EE3951E3 
 347      C38FF3D4 
 348 05e8 E58CD20B 		.ascii	"\345\214\322\0135\276\374\004\033\034O\254\276 \360"
 348      35BEFC04 
 348      1B1C4FAC 
 348      BE20F0
 349 05f7 D0A8C960 		.ascii	"\320\250\311`w\222\363,\215\326\2174-0\323}\253.]Gf"
 349      7792F32C 
 349      8DD68F34 
 349      2D30D37D 
 349      AB2E5D47 
 350 060c 7E20F1FB 		.ascii	"~ \361\373\211\031\317l\331\3640\210\2447cl\323\241"
 350      8919CF6C 
 350      D9F43088 
 350      A437636C 
 350      D3A1
 351 061e CBEE2259 		.ascii	"\313\356\"Y$I}\230XF\217\334=\317E\310<R\222,a\222\344"
 351      24497D98 
 351      58468FDC 
ARM GAS  C:\Users\IYANG~1.DES\AppData\Local\Temp\cc9lGksf.s 			page 28


 351      3DCF45C8 
 351      3C52922C 
 352 0635 FE07FDAD 		.ascii	"\376\007\375\255~\364\345\3732\325\226\\[\313^\276\276"
 352      7EF4E5FB 
 352      32D5965C 
 352      5BCB5EBE 
 352      BE
 353 0646 64D8D57F 		.ascii	"d\330\325\177f\000\361\343\214P\312\366]\005\2447\""
 353      6600F1E3 
 353      8C50CAF6 
 353      5D05A437 
 353      22
 354 0657 68D1F25B 		.ascii	"h\321\362[c\370\374\026=?\301\036w\236\334\360}\020"
 354      63F8FC16 
 354      3D3FC11E 
 354      779EDCF0 
 354      7D10
 355 0669 2FF9D053 		.ascii	"/\371\320S\303\311\254\336l\350Y\363\346\315\242\361"
 355      C3C9ACDE 
 355      6CE859F3 
 355      E6CDA2F1 
 356 0679 77ECAB5A 		.ascii	"w\354\253ZK\342\237\216g\321N\3539:\344A\"\235g\206"
 356      4BE29F8E 
 356      67D14EEB 
 356      393AE441 
 356      229D6786 
 357 068d 3ED54BD9 		.ascii	">\325K\331\213i\317\375\024\363\004\3469\217=O6\333"
 357      8B69CFFD 
 357      14F304E6 
 357      398F3D4F 
 357      36DB
 358 069f 41B2E518 		.ascii	"A\262\345\030\370t\332\327\024\014QN\226\261\356\002"
 358      F874DAD7 
 358      140C514E 
 358      96B1EE02 
 359 06af A0D81709 		.ascii	"\240\330\027\011t+{\347'\275\266\236C\033p0J\004I\302"
 359      742B7BE7 
 359      27BDB69E 
 359      431B7030 
 359      4A0449C2 
 360 06c3 E03FC103 		.ascii	"\340?\301\003\003\224\202CQ\032\236\207R\361<\245\006"
 360      03948243 
 360      511A9E87 
 360      52F13CA5 
 360      06
 361 06d4 3A7E1CBD 		.ascii	":~\034\275\214\371d\352\001\276\276\377r\246\016\315"
 361      8CF964EA 
 361      01BEBEFF 
 361      72A60ECD 
 362 06e4 0A9D4611 		.ascii	"\012\235F\021\332\004\353\247\323E|v\236\033\022$\204"
 362      DA04EBA7 
 362      D3457C76 
 362      9E1B1224 
 362      84
 363 06f5 3E03C846 		.ascii	">\003\310F\240\311\234\246\001P\314\365|6R\240\233%"
 363      A0C99CA6 
 363      0150CCF5 
ARM GAS  C:\Users\IYANG~1.DES\AppData\Local\Temp\cc9lGksf.s 			page 29


 363      7C3652A0 
 363      9B25
 364 0707 EB2F7882 		.ascii	"\353/x\202~\356q\242\225Mei:\232\264\217hM&\217\245"
 364      7EEE71A2 
 364      954D6569 
 364      3A9AB48F 
 364      684D268F 
 365 071c 0934697A 		.ascii	"\0114iz2L\337x\310\3457\375\031i+\226\317H/\320\227"
 365      324CDF78 
 365      C8E537FD 
 365      19692B96 
 365      CF482FD0 
 366 0731 409BB3EA 		.ascii	"@\233\263\352\204\277\347\210\264\2362\336\002$20Ag"
 366      84BFE788 
 366      B49E32DE 
 366      02243230 
 366      4167
 367 0743 E299CA1A 		.ascii	"\342\231\312\032z`,t\365\005x\2437?\011=\352\310lB|"
 367      7A602C74 
 367      F50578A3 
 367      373F093D 
 367      EAC86C42 
 368 0758 260D286A 		.ascii	"&\015(j\332\332\334\025\304\347\263A\365\346,\0079\325"
 368      DADADC15 
 368      C4E7B341 
 368      F5E62C07 
 368      39D5
 369 076a ACD44B4E 		.ascii	"\254\324KN\207\304v\321\251\362g\350I\036\232\012\014"
 369      87C476D1 
 369      A9F267E8 
 369      491E9A0A 
 369      0C
 370 077b 27BFE948 		.ascii	"'\277\351H\321.\253\226R\363fP#$\004\237\203!\010\003"
 370      D12EAB96 
 370      52F36650 
 370      2324049F 
 370      83210803 
 371 078f DA8129F5 		.ascii	"\332\201)\365\243\305\255\313\231\016\251\221\351\030"
 371      A3C5ADCB 
 371      990EA991 
 371      E918
 372 079d 2DAC19F4 		.ascii	"-\254\031\364\177lQ\216zQ\352\375\224\323\2012d\033"
 372      7F6C518E 
 372      7A51EAFD 
 372      94D38132 
 372      641B
 373 07af 9E09D582 		.ascii	"\236\011\325\202\262\3612\364R0\332\211\227\321\363"
 373      B2F132F4 
 373      5230DA89 
 373      97D1F3
 374 07be 6761799B 		.ascii	"gay\233\366\271\275Rg\236\2637m\265\324.%\221"
 374      F6B9BD52 
 374      679EB337 
 374      6DB5D42E 
 374      2591
 375 07d0 6E49B1DB 		.ascii	"nI\261\333Y\"\275\034\316\"[\001\355\202\225h7~\216"
 375      5922BD1C 
ARM GAS  C:\Users\IYANG~1.DES\AppData\Local\Temp\cc9lGksf.s 			page 30


 375      CE225B01 
 375      ED829568 
 375      377E8E
 376 07e3 A8CF3C32 		.ascii	"\250\317<2\354\303\037e^~\2335\276GK2a\377u'x(\273\215"
 376      ECC31F65 
 376      5E7E9B35 
 376      BE474B32 
 376      61FF7527 
 377 07fb 13D7C703 		.ascii	"\023\327\307\003Y\203\233bQ\036\376\371\"v,\310\276"
 377      59839B62 
 377      511EFEF9 
 377      22762CC8 
 377      BE
 378 080c BA220936 		.ascii	"\272\"\0116\330\036,\240\\\354np_`O\207\253=y\350\022"
 378      D81E2CA0 
 378      5CEC6E70 
 378      5F604F87 
 378      AB3D79E8 
 379 0821 D6A77B1A 		.ascii	"\326\247{\032'\005{\352b/\326\323\276\000w@_\314nN\327"
 379      27057BEA 
 379      622FD6D3 
 379      BE007740 
 379      5FCC6E4E 
 380 0836 A8D0E46D 		.ascii	"\250\320\344m\341A\347c\275b$\237.p\330\333\222\374"
 380      E141E763 
 380      BD62249F 
 380      2E70D8DB 
 380      92FC
 381 0848 550B0654 		.ascii	"U\013\006T\013\366\311\352\367Qtkg_\203^\205\276\242"
 381      0BF6C9EA 
 381      F751746B 
 381      675F835E 
 381      85BEA2
 382 085b 4217C8E8 		.ascii	"B\027\310\350\002\212\266?8\325\345\247\3041\365\227"
 382      028AB63F 
 382      38D5E5A7 
 382      C431F597 
 383 086b 43427A65 		.ascii	"CBze\343\375\003j\376\205*o\367\313\006\366S\003\355"
 383      E3FD036A 
 383      FE852A6F 
 383      F7CB06F6 
 383      5303ED
 384 087e BD8F86B4 		.ascii	"\275\217\206\264*t\237\212N\221\214.\242\350\336\372"
 384      2A749F8A 
 384      4E918C2E 
 384      A2E8DEFA 
 385 088e 96BE0015 		.ascii	"\226\276\000\025\272G\205.\226\321\305\024\275\253\256"
 385      BA47852E 
 385      96D1C514 
 385      BDABAE
 386 089d 284DEDEA 		.ascii	"(M\355\352f\257\226\305\241\022\031]B\321{R\312J\325"
 386      66AF96C5 
 386      A112195D 
 386      42D17B52 
 386      CA4AD5
 387 08b0 6852781E 		.ascii	"hRx\036t\251\214.\245\350\232o+<A'\201Q\237\223V\272"
 387      74A98C2E 
ARM GAS  C:\Users\IYANG~1.DES\AppData\Local\Temp\cc9lGksf.s 			page 31


 387      A5E89A6F 
 387      2B3C4127 
 387      81519F93 
 388 08c6 735446E1 		.ascii	"sTF\341\316\254\326\011,\310\237\275\251\277\342\263"
 388      CEACD609 
 388      2CC89FBD 
 388      A9BFE2B3 
 389 08d6 B71C932F 		.ascii	"\267\034\223/\312\342\352\211[\201*N\017U\376\036\220"
 389      CAE2EA89 
 389      5B812A4E 
 389      0F55FE1E 
 389      90
 390 08e7 391DA046 		.ascii	"9\035\240F\244\035\033\013\264|#\333\0015\367\323\353"
 390      A41D1B0B 
 390      B47C23DB 
 390      0135F7D3 
 390      EB
 391 08f8 0258E67E 		.ascii	"\002X\346~\371[\205\234uO\247\367\350\224\362W\2578"
 391      F95B859C 
 391      754FA7F7 
 391      E894F257 
 391      AF38
 392 090a 84A7FEBA 		.ascii	"\204\247\376\272\311K_\242E\225\220\334\012O\335\037"
 392      C94B5FA2 
 392      459590DC 
 392      0A4FDD1F 
 393 091a F4AAFB81 		.ascii	"\364\252\373\201\214\343\016\235B!\365\027\024\002\276"
 393      8CE30E9D 
 393      4221F517 
 393      1402BE
 394 0929 257B5BA9 		.ascii	"%{[\251:\273\207U\225S%{[E\275M\273\264\263C\235\257"
 394      3ABB8755 
 394      9553257B 
 394      5B45BD4D 
 394      BBB4B343 
 395 093f 4A15BA5A 		.ascii	"J\025\272ZFWS\364\223O\031\220\256\032L\347\312\006"
 395      465753F4 
 395      934F1990 
 395      AE1A4CE7 
 395      CA06
 396 0951 5CB7A7FF 		.ascii	"\\\267\247\377\206?\212\311y\342\010\226\317\023)\265"
 396      863F8AC9 
 396      79E20896 
 396      CF1329B5 
 397 0961 5FB6FAF3 		.ascii	"_\266\372\363\255,\340)\366\233\345\276\3747l\320\323"
 397      AD2CE029 
 397      F69BE5BE 
 397      FC376CD0 
 397      D3
 398 0972 907899BE 		.ascii	"\220x\231\276\261\353\2247vK\305\361tA\376P\265\367"
 398      B1EB9437 
 398      764BC5F1 
 398      7441FE50 
 398      B5F7
 399 0984 077A7D99 		.ascii	"\007z}\231\201RT\253D\020\325\223We-\226\217\012\015"
 399      815254AB 
 399      4410D593 
ARM GAS  C:\Users\IYANG~1.DES\AppData\Local\Temp\cc9lGksf.s 			page 32


 399      57652D96 
 399      8F0A0D
 400 0997 F4A85075 		.ascii	"\364\250Pu\330Y\030\310\177\307T\347O\334I\323REyME"
 400      D85918C8 
 400      7FC754E7 
 400      4FDC49D3 
 400      5245794D 
 401 09ac EC13AB09 		.ascii	"\354\023\253\011^w\244I8\260\347H\351PT4\342\020\316"
 401      5E77A449 
 401      38B0E748 
 401      E9505434 
 401      E210CE
 402 09bf 37DE146B 		.ascii	"7\336\024k[\264\314\367\255\277\277\037\022\306\315"
 402      5BB4CCF7 
 402      ADBFBF1F 
 402      12C6CD
 403 09ce 7D4B8C15 		.ascii	"}K\214\025-\006\233\030\261f\2659\336b\024\303W\255"
 403      2D069B18 
 403      B166B539 
 403      DE6214C3 
 403      57AD
 404 09e0 36872D0D 		.ascii	"6\207-\0157&\330\022\342D\353\302\217\031~\311b!,\332"
 404      3726D812 
 404      E244EBC2 
 404      8F197EC9 
 404      62212CDA 
 405 09f4 6C5CB75A 		.ascii	"l\\\267Z\264\305\307\371YE\243\315d\216\325\030?6X\204"
 405      B4C5C7F9 
 405      5945A3CD 
 405      648ED518 
 405      3F365884 
 406 0a08 857156B3 		.ascii	"\205qV\263\321\024k\262q\241\323\352\2124\331l\242e"
 406      D1146BB2 
 406      71A1D3EA 
 406      8A34D96C 
 406      A265
 407 0a1a 8D31326A 		.ascii	"\21512j\241\221\363!\012_\371\015\250\372k\254!\332"
 407      A191F321 
 407      0A5FF90D 
 407      A8FA6BAC 
 407      21DA
 408 0a2c 1CF59E39 		.ascii	"\034\365\2369\336f\212\215Z\025\037\023g\325{cua\011"
 408      DE668A8D 
 408      5A151F13 
 408      67D57B63 
 408      756109
 409 0a3f AF8BD186 		.ascii	"\257\213\321\206\204\367\255s\246\321\034\226\360\216"
 409      84F7AD73 
 409      A6D11C96 
 409      F08E
 410 0a4d 692D70D4 		.ascii	"i-p\324\032\023\2546\203-\336:#,au\2025,z\335\033F\363"
 410      1A13AC36 
 410      832DDE3A 
 410      232C6175 
 410      82352C7A 
 411 0a65 6A9BC162 		.ascii	"j\233\301b{J\231\370\300b\262\211\177\2131\277i\021"
 411      7B4A99F8 
ARM GAS  C:\Users\IYANG~1.DES\AppData\Local\Temp\cc9lGksf.s 			page 33


 411      C062B289 
 411      7F8B31BF 
 411      6911
 412 0a77 D73FED9E 		.ascii	"\327?\355\236\004\224h[e\376D\264\274k\216\020\247\013"
 412      0494685B 
 412      65FE44B4 
 412      BC6B8E10 
 412      A70B
 413 0a89 06987913 		.ascii	"\006\230y\023\320`(@\246\024\226`\214\026=\326>\220"
 413      D0602840 
 413      A6149660 
 413      8C163DD6 
 413      3E90
 414 0a9b ADF9C59A 		.ascii	"\255\371\305\232cc\343\243\243\375\"cC\254q\242\021"
 414      6363E3A3 
 414      A3FD2263 
 414      43AC71A2 
 414      11
 415 0aac 2DF2B59A 		.ascii	"-\362\265\232\376#\256\261%D\374)<\316b\216\262\030"
 415      FE23AEB1 
 415      2544FC29 
 415      3CCE628E 
 415      B218
 416 0abe 6242224D 		.ascii	"bB\"M\260\024\202\022g\021\255\326p\022\275\020\243"
 416      B0148212 
 416      6711ADD6 
 416      7012BD10 
 416      A3
 417 0acf 4534D8CC 		.ascii	"E4\330\314\226\360\245\013_VO\230b\342\314\026[xTl|"
 417      96F0A50B 
 417      5F564F98 
 417      62E2CC16 
 417      5B78546C 
 418 0ae4 B8C11203 		.ascii	"\270\301\022\003\317\227/\\\022\036mZ\033\036e4\222"
 418      CF972F5C 
 418      121E6D5A 
 418      1B1E6534 
 418      92
 419 0af5 99056050 		.ascii	"\231\005`P\\ \032\326\232\344g\246Xct|\204\030n\265"
 419      5C201AD6 
 419      9AE467A6 
 419      5863747C 
 419      84186EB5 
 420 0b09 45448891 		.ascii	"ED\210\221$}1b\214U$\314l\037[\314\237h\242EC\344\272"
 420      247D3162 
 420      8C5524CC 
 420      6C1F5BCC 
 420      9F68A245 
 421 0b20 FF271B35 		.ascii	"\377'\0335\013\217}\013\344\224\330\2173\030\327\211"
 421      0B8F7D0B 
 421      E494D88F 
 421      3318D789 
 422 0b30 117E8688 		.ascii	"\021~\206\210\010bAC\342\241\207\344\256a\274\326\330"
 422      08624143 
 422      E2A187E4 
 422      AE61BCD6 
 422      D8
ARM GAS  C:\Users\IYANG~1.DES\AppData\Local\Temp\cc9lGksf.s 			page 34


 423 0b41 82BC06D1 		.ascii	"\202\274\006\321&\253\355\251\307\306\013\227\376q\331"
 423      26ABEDA9 
 423      C7C60B97 
 423      FE71D9
 424 0b50 521F8B18 		.ascii	"R\037\213\030\265d\261\006\376\277\242\013\373\327\273"
 424      B564B106 
 424      FEBFA20B 
 424      FBD7BB
 425 0b5f 6FBCFBEF 		.ascii	"o\274\373\3577\336[\351\033\037\033o\025#f\2602\202"
 425      37DE5BE9 
 425      1B1F1B6F 
 425      152366B0 
 425      3282
 426 0b71 44BE2E46 		.ascii	"D\276.F\032\342\243m\377\003\304Z\221n"
 426      1AE2A36D 
 426      FF03C45A 
 426      916E
 427              		.text
 428              		.section	.gnu.lto_.symtab.181383ef,"",%progbits
 429 0000 53657441 		.ascii	"SetAnalogRoutingPumps\000\000\000\000\000\000\000\000"
 429      6E616C6F 
 429      67526F75 
 429      74696E67 
 429      50756D70 
 430 001d 00000000 		.ascii	"\000\000\000\000\317\000\000\000cyfitter_cfg\000\000"
 430      CF000000 
 430      63796669 
 430      74746572 
 430      5F636667 
 431 0033 00000000 		.ascii	"\000\000\000\000\000\000\000\000\000\000\324\000\000"
 431      00000000 
 431      0000D400 
 431      00
 432 0040 00437944 		.ascii	"\000CyDelayUs\000\000\002\000\000\000\000\000\000\000"
 432      656C6179 
 432      55730000 
 432      02000000 
 432      00000000 
 433 0054 0000D800 		.ascii	"\000\000\330\000\000\000CySysClkEcoStart\000\000\002"
 433      00004379 
 433      53797343 
 433      6C6B4563 
 433      6F537461 
 434 006d 00000000 		.ascii	"\000\000\000\000\000\000\000\000\000\337\000\000\000"
 434      00000000 
 434      00DF0000 
 434      00
 435 007a 43795379 		.ascii	"CySysClkWriteImoFreq\000\000\002\000\000\000\000\000"
 435      73436C6B 
 435      57726974 
 435      65496D6F 
 435      46726571 
 436 0096 00000000 		.ascii	"\000\000\000\000\343\000\000\000CySysClkWcoSetPower"
 436      E3000000 
 436      43795379 
 436      73436C6B 
 436      57636F53 
ARM GAS  C:\Users\IYANG~1.DES\AppData\Local\Temp\cc9lGksf.s 			page 35


 437 00b1 4D6F6465 		.ascii	"Mode\000\000\002\000\000\000\000\000\000\000\000\000"
 437      00000200 
 437      00000000 
 437      00000000 
 438 00c1 E7000000 		.ascii	"\347\000\000\000CyDelayCycles\000\000\002\000\000\000"
 438      43794465 
 438      6C617943 
 438      79636C65 
 438      73000002 
 439 00d8 00000000 		.ascii	"\000\000\000\000\000\000\351\000\000\000CySysClkWco"
 439      0000E900 
 439      00004379 
 439      53797343 
 439      6C6B5763 
 440 00ed 53746172 		.ascii	"Start\000\000\002\000\000\000\000\000\000\000\000\000"
 440      74000002 
 440      00000000 
 440      00000000 
 440      00
 441 00fe EB000000 		.ascii	"\353\000\000\000"
 442              		.text
 443              		.section	.gnu.lto_.opts,"",%progbits
 444 0000 272D666E 		.ascii	"'-fno-trapv' '-mcpu=cortex-m0' '-mthumb' '-g' '-O3'"
 444      6F2D7472 
 444      61707627 
 444      20272D6D 
 444      6370753D 
 445 0033 20272D66 		.ascii	" '-ffunction-sections' '-finline-functions' '-flto'"
 445      66756E63 
 445      74696F6E 
 445      2D736563 
 445      74696F6E 
 446 0066 20272D66 		.ascii	" '-ffat-lto-objects'\000"
 446      6661742D 
 446      6C746F2D 
 446      6F626A65 
 446      63747327 
 447              		.text
 448              		.cfi_sections	.debug_frame
 449              		.section	.text.SetAnalogRoutingPumps,"ax",%progbits
 450              		.align	2
 451              		.global	SetAnalogRoutingPumps
 452              		.code	16
 453              		.thumb_func
 454              		.type	SetAnalogRoutingPumps, %function
 455              	SetAnalogRoutingPumps:
 456              	.LFB7:
 457              		.file 1 "Generated_Source\\PSoC4\\cyfitter_cfg.c"
   1:Generated_Source\PSoC4/cyfitter_cfg.c **** /*******************************************************************************
   2:Generated_Source\PSoC4/cyfitter_cfg.c **** * File Name: cyfitter_cfg.c
   3:Generated_Source\PSoC4/cyfitter_cfg.c **** * 
   4:Generated_Source\PSoC4/cyfitter_cfg.c **** * PSoC Creator  4.0 Update 1
   5:Generated_Source\PSoC4/cyfitter_cfg.c **** *
   6:Generated_Source\PSoC4/cyfitter_cfg.c **** * Description:
   7:Generated_Source\PSoC4/cyfitter_cfg.c **** * This file contains device initialization code.
   8:Generated_Source\PSoC4/cyfitter_cfg.c **** * Except for the user defined sections in CyClockStartupError(), this file should not be modified.
   9:Generated_Source\PSoC4/cyfitter_cfg.c **** * This file is automatically generated by PSoC Creator.
ARM GAS  C:\Users\IYANG~1.DES\AppData\Local\Temp\cc9lGksf.s 			page 36


  10:Generated_Source\PSoC4/cyfitter_cfg.c **** *
  11:Generated_Source\PSoC4/cyfitter_cfg.c **** ********************************************************************************
  12:Generated_Source\PSoC4/cyfitter_cfg.c **** * Copyright (c) 2007-2016 Cypress Semiconductor.  All rights reserved.
  13:Generated_Source\PSoC4/cyfitter_cfg.c **** * You may use this file only in accordance with the license, terms, conditions, 
  14:Generated_Source\PSoC4/cyfitter_cfg.c **** * disclaimers, and limitations in the end user license agreement accompanying 
  15:Generated_Source\PSoC4/cyfitter_cfg.c **** * the software package with which this file was provided.
  16:Generated_Source\PSoC4/cyfitter_cfg.c **** ********************************************************************************/
  17:Generated_Source\PSoC4/cyfitter_cfg.c **** 
  18:Generated_Source\PSoC4/cyfitter_cfg.c **** #include <string.h>
  19:Generated_Source\PSoC4/cyfitter_cfg.c **** #include "cytypes.h"
  20:Generated_Source\PSoC4/cyfitter_cfg.c **** #include "cydevice_trm.h"
  21:Generated_Source\PSoC4/cyfitter_cfg.c **** #include "cyfitter.h"
  22:Generated_Source\PSoC4/cyfitter_cfg.c **** #include "CyLib.h"
  23:Generated_Source\PSoC4/cyfitter_cfg.c **** #include "cyfitter_cfg.h"
  24:Generated_Source\PSoC4/cyfitter_cfg.c **** 
  25:Generated_Source\PSoC4/cyfitter_cfg.c **** 
  26:Generated_Source\PSoC4/cyfitter_cfg.c **** #if defined(__GNUC__) || defined(__ARMCC_VERSION)
  27:Generated_Source\PSoC4/cyfitter_cfg.c ****     #define CYPACKED 
  28:Generated_Source\PSoC4/cyfitter_cfg.c ****     #define CYPACKED_ATTR __attribute__ ((packed))
  29:Generated_Source\PSoC4/cyfitter_cfg.c ****     #define CYALIGNED __attribute__ ((aligned))
  30:Generated_Source\PSoC4/cyfitter_cfg.c ****     #define CY_CFG_UNUSED __attribute__ ((unused))
  31:Generated_Source\PSoC4/cyfitter_cfg.c ****     #ifndef CY_CFG_SECTION
  32:Generated_Source\PSoC4/cyfitter_cfg.c ****         #define CY_CFG_SECTION __attribute__ ((section(".psocinit")))
  33:Generated_Source\PSoC4/cyfitter_cfg.c ****     #endif
  34:Generated_Source\PSoC4/cyfitter_cfg.c ****     
  35:Generated_Source\PSoC4/cyfitter_cfg.c ****     #if defined(__ARMCC_VERSION)
  36:Generated_Source\PSoC4/cyfitter_cfg.c ****         #define CY_CFG_MEMORY_BARRIER() __memory_changed()
  37:Generated_Source\PSoC4/cyfitter_cfg.c ****     #else
  38:Generated_Source\PSoC4/cyfitter_cfg.c ****         #define CY_CFG_MEMORY_BARRIER() __sync_synchronize()
  39:Generated_Source\PSoC4/cyfitter_cfg.c ****     #endif
  40:Generated_Source\PSoC4/cyfitter_cfg.c ****     
  41:Generated_Source\PSoC4/cyfitter_cfg.c **** #elif defined(__ICCARM__)
  42:Generated_Source\PSoC4/cyfitter_cfg.c ****     #include <intrinsics.h>
  43:Generated_Source\PSoC4/cyfitter_cfg.c **** 
  44:Generated_Source\PSoC4/cyfitter_cfg.c ****     #define CYPACKED __packed
  45:Generated_Source\PSoC4/cyfitter_cfg.c ****     #define CYPACKED_ATTR 
  46:Generated_Source\PSoC4/cyfitter_cfg.c ****     #define CYALIGNED _Pragma("data_alignment=4")
  47:Generated_Source\PSoC4/cyfitter_cfg.c ****     #define CY_CFG_UNUSED _Pragma("diag_suppress=Pe177")
  48:Generated_Source\PSoC4/cyfitter_cfg.c ****     #define CY_CFG_SECTION _Pragma("location=\".psocinit\"")
  49:Generated_Source\PSoC4/cyfitter_cfg.c ****     
  50:Generated_Source\PSoC4/cyfitter_cfg.c ****     #define CY_CFG_MEMORY_BARRIER() __DMB()
  51:Generated_Source\PSoC4/cyfitter_cfg.c ****     
  52:Generated_Source\PSoC4/cyfitter_cfg.c **** #else
  53:Generated_Source\PSoC4/cyfitter_cfg.c ****     #error Unsupported toolchain
  54:Generated_Source\PSoC4/cyfitter_cfg.c **** #endif
  55:Generated_Source\PSoC4/cyfitter_cfg.c **** 
  56:Generated_Source\PSoC4/cyfitter_cfg.c **** 
  57:Generated_Source\PSoC4/cyfitter_cfg.c **** CY_CFG_UNUSED
  58:Generated_Source\PSoC4/cyfitter_cfg.c **** static void CYMEMZERO(void *s, size_t n);
  59:Generated_Source\PSoC4/cyfitter_cfg.c **** CY_CFG_UNUSED
  60:Generated_Source\PSoC4/cyfitter_cfg.c **** static void CYMEMZERO(void *s, size_t n)
  61:Generated_Source\PSoC4/cyfitter_cfg.c **** {
  62:Generated_Source\PSoC4/cyfitter_cfg.c **** 	(void)memset(s, 0, n);
  63:Generated_Source\PSoC4/cyfitter_cfg.c **** }
  64:Generated_Source\PSoC4/cyfitter_cfg.c **** CY_CFG_UNUSED
  65:Generated_Source\PSoC4/cyfitter_cfg.c **** static void CYCONFIGCPY(void *dest, const void *src, size_t n);
  66:Generated_Source\PSoC4/cyfitter_cfg.c **** CY_CFG_UNUSED
ARM GAS  C:\Users\IYANG~1.DES\AppData\Local\Temp\cc9lGksf.s 			page 37


  67:Generated_Source\PSoC4/cyfitter_cfg.c **** static void CYCONFIGCPY(void *dest, const void *src, size_t n)
  68:Generated_Source\PSoC4/cyfitter_cfg.c **** {
  69:Generated_Source\PSoC4/cyfitter_cfg.c **** 	(void)memcpy(dest, src, n);
  70:Generated_Source\PSoC4/cyfitter_cfg.c **** }
  71:Generated_Source\PSoC4/cyfitter_cfg.c **** CY_CFG_UNUSED
  72:Generated_Source\PSoC4/cyfitter_cfg.c **** static void CYCONFIGCPYCODE(void *dest, const void *src, size_t n);
  73:Generated_Source\PSoC4/cyfitter_cfg.c **** CY_CFG_UNUSED
  74:Generated_Source\PSoC4/cyfitter_cfg.c **** static void CYCONFIGCPYCODE(void *dest, const void *src, size_t n)
  75:Generated_Source\PSoC4/cyfitter_cfg.c **** {
  76:Generated_Source\PSoC4/cyfitter_cfg.c **** 	(void)memcpy(dest, src, n);
  77:Generated_Source\PSoC4/cyfitter_cfg.c **** }
  78:Generated_Source\PSoC4/cyfitter_cfg.c **** 
  79:Generated_Source\PSoC4/cyfitter_cfg.c **** 
  80:Generated_Source\PSoC4/cyfitter_cfg.c **** 
  81:Generated_Source\PSoC4/cyfitter_cfg.c **** 
  82:Generated_Source\PSoC4/cyfitter_cfg.c **** /* Clock startup error codes                                                   */
  83:Generated_Source\PSoC4/cyfitter_cfg.c **** #define CYCLOCKSTART_NO_ERROR    0u
  84:Generated_Source\PSoC4/cyfitter_cfg.c **** #define CYCLOCKSTART_XTAL_ERROR  1u
  85:Generated_Source\PSoC4/cyfitter_cfg.c **** #define CYCLOCKSTART_32KHZ_ERROR 2u
  86:Generated_Source\PSoC4/cyfitter_cfg.c **** #define CYCLOCKSTART_PLL_ERROR   3u
  87:Generated_Source\PSoC4/cyfitter_cfg.c **** 
  88:Generated_Source\PSoC4/cyfitter_cfg.c **** 
  89:Generated_Source\PSoC4/cyfitter_cfg.c **** #ifdef CY_NEED_CYCLOCKSTARTUPERROR
  90:Generated_Source\PSoC4/cyfitter_cfg.c **** /*******************************************************************************
  91:Generated_Source\PSoC4/cyfitter_cfg.c **** * Function Name: CyClockStartupError
  92:Generated_Source\PSoC4/cyfitter_cfg.c **** ********************************************************************************
  93:Generated_Source\PSoC4/cyfitter_cfg.c **** * Summary:
  94:Generated_Source\PSoC4/cyfitter_cfg.c **** *  If an error is encountered during clock configuration (crystal startup error,
  95:Generated_Source\PSoC4/cyfitter_cfg.c **** *  PLL lock error, etc.), the system will end up here.  Unless reimplemented by
  96:Generated_Source\PSoC4/cyfitter_cfg.c **** *  the customer, this function will stop in an infinite loop.
  97:Generated_Source\PSoC4/cyfitter_cfg.c **** *
  98:Generated_Source\PSoC4/cyfitter_cfg.c **** * Parameters:
  99:Generated_Source\PSoC4/cyfitter_cfg.c **** *   void
 100:Generated_Source\PSoC4/cyfitter_cfg.c **** *
 101:Generated_Source\PSoC4/cyfitter_cfg.c **** * Return:
 102:Generated_Source\PSoC4/cyfitter_cfg.c **** *   void
 103:Generated_Source\PSoC4/cyfitter_cfg.c **** *
 104:Generated_Source\PSoC4/cyfitter_cfg.c **** *******************************************************************************/
 105:Generated_Source\PSoC4/cyfitter_cfg.c **** CY_CFG_UNUSED
 106:Generated_Source\PSoC4/cyfitter_cfg.c **** static void CyClockStartupError(uint8 errorCode);
 107:Generated_Source\PSoC4/cyfitter_cfg.c **** CY_CFG_UNUSED
 108:Generated_Source\PSoC4/cyfitter_cfg.c **** static void CyClockStartupError(uint8 errorCode)
 109:Generated_Source\PSoC4/cyfitter_cfg.c **** {
 110:Generated_Source\PSoC4/cyfitter_cfg.c ****     /* To remove the compiler warning if errorCode not used.                */
 111:Generated_Source\PSoC4/cyfitter_cfg.c ****     errorCode = errorCode;
 112:Generated_Source\PSoC4/cyfitter_cfg.c **** 
 113:Generated_Source\PSoC4/cyfitter_cfg.c ****     /* If we have a clock startup error (bad MHz crystal, PLL lock, etc.),  */
 114:Generated_Source\PSoC4/cyfitter_cfg.c ****     /* we will end up here to allow the customer to implement something to  */
 115:Generated_Source\PSoC4/cyfitter_cfg.c ****     /* deal with the clock condition.                                       */
 116:Generated_Source\PSoC4/cyfitter_cfg.c **** 
 117:Generated_Source\PSoC4/cyfitter_cfg.c **** #ifdef CY_CFG_CLOCK_STARTUP_ERROR_CALLBACK
 118:Generated_Source\PSoC4/cyfitter_cfg.c **** 	CY_CFG_Clock_Startup_ErrorCallback();
 119:Generated_Source\PSoC4/cyfitter_cfg.c **** #else
 120:Generated_Source\PSoC4/cyfitter_cfg.c **** 	/*  If not using CY_CFG_CLOCK_STARTUP_ERROR_CALLBACK, place your clock startup code here. */
 121:Generated_Source\PSoC4/cyfitter_cfg.c ****     /* `#START CyClockStartupError` */
 122:Generated_Source\PSoC4/cyfitter_cfg.c **** 
 123:Generated_Source\PSoC4/cyfitter_cfg.c **** 
ARM GAS  C:\Users\IYANG~1.DES\AppData\Local\Temp\cc9lGksf.s 			page 38


 124:Generated_Source\PSoC4/cyfitter_cfg.c **** 
 125:Generated_Source\PSoC4/cyfitter_cfg.c ****     /* `#END` */
 126:Generated_Source\PSoC4/cyfitter_cfg.c **** 
 127:Generated_Source\PSoC4/cyfitter_cfg.c ****     /* If nothing else, stop here since the clocks have not started         */
 128:Generated_Source\PSoC4/cyfitter_cfg.c ****     /* correctly.                                                           */
 129:Generated_Source\PSoC4/cyfitter_cfg.c ****     while(1) {}
 130:Generated_Source\PSoC4/cyfitter_cfg.c **** #endif /* CY_CFG_CLOCK_STARTUP_ERROR_CALLBACK */ 
 131:Generated_Source\PSoC4/cyfitter_cfg.c **** }
 132:Generated_Source\PSoC4/cyfitter_cfg.c **** #endif
 133:Generated_Source\PSoC4/cyfitter_cfg.c **** 
 134:Generated_Source\PSoC4/cyfitter_cfg.c **** 
 135:Generated_Source\PSoC4/cyfitter_cfg.c **** 
 136:Generated_Source\PSoC4/cyfitter_cfg.c **** /*******************************************************************************
 137:Generated_Source\PSoC4/cyfitter_cfg.c **** * Function Name: ClockSetup
 138:Generated_Source\PSoC4/cyfitter_cfg.c **** ********************************************************************************
 139:Generated_Source\PSoC4/cyfitter_cfg.c **** *
 140:Generated_Source\PSoC4/cyfitter_cfg.c **** * Summary:
 141:Generated_Source\PSoC4/cyfitter_cfg.c **** *   Performs the initialization of all of the clocks in the device based on the
 142:Generated_Source\PSoC4/cyfitter_cfg.c **** *   settings in the Clock tab of the DWR.  This includes enabling the requested
 143:Generated_Source\PSoC4/cyfitter_cfg.c **** *   clocks and setting the necessary dividers to produce the desired frequency. 
 144:Generated_Source\PSoC4/cyfitter_cfg.c **** *
 145:Generated_Source\PSoC4/cyfitter_cfg.c **** * Parameters:
 146:Generated_Source\PSoC4/cyfitter_cfg.c **** *   void
 147:Generated_Source\PSoC4/cyfitter_cfg.c **** *
 148:Generated_Source\PSoC4/cyfitter_cfg.c **** * Return:
 149:Generated_Source\PSoC4/cyfitter_cfg.c **** *   void
 150:Generated_Source\PSoC4/cyfitter_cfg.c **** *
 151:Generated_Source\PSoC4/cyfitter_cfg.c **** *******************************************************************************/
 152:Generated_Source\PSoC4/cyfitter_cfg.c **** static void ClockSetup(void);
 153:Generated_Source\PSoC4/cyfitter_cfg.c **** CY_CFG_SECTION
 154:Generated_Source\PSoC4/cyfitter_cfg.c **** static void ClockSetup(void)
 155:Generated_Source\PSoC4/cyfitter_cfg.c **** {
 156:Generated_Source\PSoC4/cyfitter_cfg.c **** 
 157:Generated_Source\PSoC4/cyfitter_cfg.c **** 	/* Set Flash Cycles based on max possible frequency in case a glitch occurs during ClockSetup(). *
 158:Generated_Source\PSoC4/cyfitter_cfg.c **** 	CY_SET_REG32((void CYXDATA *)(CYREG_CPUSS_FLASH_CTL), (0x0012u));
 159:Generated_Source\PSoC4/cyfitter_cfg.c **** 
 160:Generated_Source\PSoC4/cyfitter_cfg.c **** 	/* Start the WCO */
 161:Generated_Source\PSoC4/cyfitter_cfg.c **** 	CySysClkWcoStart();
 162:Generated_Source\PSoC4/cyfitter_cfg.c **** 	CyDelayCycles(12000000u); /* WCO may take up to 500ms to start */
 163:Generated_Source\PSoC4/cyfitter_cfg.c **** 	(void)CySysClkWcoSetPowerMode(CY_SYS_CLK_WCO_LPM);    /* Switch to the low power mode */
 164:Generated_Source\PSoC4/cyfitter_cfg.c **** 
 165:Generated_Source\PSoC4/cyfitter_cfg.c **** 	/* Setup and trim IMO based on desired frequency. */
 166:Generated_Source\PSoC4/cyfitter_cfg.c **** 	CySysClkWriteImoFreq(16u);
 167:Generated_Source\PSoC4/cyfitter_cfg.c **** 	/* CYDEV_CLK_ILO_CONFIG Starting address: CYDEV_CLK_ILO_CONFIG */
 168:Generated_Source\PSoC4/cyfitter_cfg.c **** 	CY_SET_XTND_REG32((void CYFAR *)(CYREG_CLK_ILO_CONFIG), 0x80000006u);
 169:Generated_Source\PSoC4/cyfitter_cfg.c **** 
 170:Generated_Source\PSoC4/cyfitter_cfg.c **** 	/* CYDEV_WDT_CONFIG Starting address: CYDEV_WDT_CONFIG */
 171:Generated_Source\PSoC4/cyfitter_cfg.c **** 	CY_SET_XTND_REG32((void CYFAR *)(CYREG_WDT_CONFIG), 0x40000000u);
 172:Generated_Source\PSoC4/cyfitter_cfg.c **** 
 173:Generated_Source\PSoC4/cyfitter_cfg.c **** 
 174:Generated_Source\PSoC4/cyfitter_cfg.c **** 	/* Enable fast start mode for XO */
 175:Generated_Source\PSoC4/cyfitter_cfg.c **** 	CY_SET_REG32((void*)CYREG_BLE_BLERD_BB_XO, CY_GET_REG32((void*)CYREG_BLE_BLERD_BB_XO) | (uint32)0x
 176:Generated_Source\PSoC4/cyfitter_cfg.c **** 	CY_SET_XTND_REG32((void CYFAR *)(CYREG_BLE_BLERD_BB_XO_CAPTRIM), 0x00002D6Au);
 177:Generated_Source\PSoC4/cyfitter_cfg.c **** 	/*Set XTAL(ECO) divider*/
 178:Generated_Source\PSoC4/cyfitter_cfg.c **** 	CY_SET_XTND_REG32((void CYFAR *)(CYREG_BLE_BLESS_XTAL_CLK_DIV_CONFIG), 0x00000000u);
 179:Generated_Source\PSoC4/cyfitter_cfg.c **** 	/* Disable Crystal Stable Interrupt before enabling ECO */
 180:Generated_Source\PSoC4/cyfitter_cfg.c **** 	CY_SET_REG32((void*)CYREG_BLE_BLESS_LL_DSM_CTRL, CY_GET_REG32((void*)CYREG_BLE_BLESS_LL_DSM_CTRL) 
ARM GAS  C:\Users\IYANG~1.DES\AppData\Local\Temp\cc9lGksf.s 			page 39


 181:Generated_Source\PSoC4/cyfitter_cfg.c **** 	/* Start the ECO and do not check status since it is not needed for HFCLK */
 182:Generated_Source\PSoC4/cyfitter_cfg.c **** 	(void)CySysClkEcoStart(2000u);
 183:Generated_Source\PSoC4/cyfitter_cfg.c **** 	CyDelayUs(1500u); /* Wait to stabalize */
 184:Generated_Source\PSoC4/cyfitter_cfg.c **** 
 185:Generated_Source\PSoC4/cyfitter_cfg.c **** 	/* Setup phase aligned clocks */
 186:Generated_Source\PSoC4/cyfitter_cfg.c **** 	CY_SET_REG32((void *)CYREG_PERI_DIV_16_CTL0, 0x00000200u);
 187:Generated_Source\PSoC4/cyfitter_cfg.c **** 	CY_SET_REG32((void *)CYREG_PERI_DIV_CMD, 0x8000FF40u);
 188:Generated_Source\PSoC4/cyfitter_cfg.c **** 
 189:Generated_Source\PSoC4/cyfitter_cfg.c **** 	/* CYDEV_CLK_IMO_CONFIG Starting address: CYDEV_CLK_IMO_CONFIG */
 190:Generated_Source\PSoC4/cyfitter_cfg.c **** 	CY_SET_XTND_REG32((void CYFAR *)(CYREG_CLK_IMO_CONFIG), 0xA6000000u);
 191:Generated_Source\PSoC4/cyfitter_cfg.c **** 
 192:Generated_Source\PSoC4/cyfitter_cfg.c **** 	/* CYDEV_CLK_SELECT Starting address: CYDEV_CLK_SELECT */
 193:Generated_Source\PSoC4/cyfitter_cfg.c **** 	CY_SET_XTND_REG32((void CYFAR *)(CYREG_CLK_SELECT), 0x00000000u);
 194:Generated_Source\PSoC4/cyfitter_cfg.c **** 
 195:Generated_Source\PSoC4/cyfitter_cfg.c **** 	/* CYDEV_PERI_PCLK_CTL6 Starting address: CYDEV_PERI_PCLK_CTL6 */
 196:Generated_Source\PSoC4/cyfitter_cfg.c **** 	CY_SET_XTND_REG32((void CYFAR *)(CYREG_PERI_PCLK_CTL6), 0x00000040u);
 197:Generated_Source\PSoC4/cyfitter_cfg.c **** 
 198:Generated_Source\PSoC4/cyfitter_cfg.c **** 	CY_SET_XTND_REG32((void CYFAR *)(CYREG_WDT_CONFIG), 0x40000000u);
 199:Generated_Source\PSoC4/cyfitter_cfg.c **** 	/* Set Flash Cycles based on newly configured 16.00MHz HFCLK. */
 200:Generated_Source\PSoC4/cyfitter_cfg.c **** 	CY_SET_REG32((void CYXDATA *)(CYREG_CPUSS_FLASH_CTL), (0x0000u));
 201:Generated_Source\PSoC4/cyfitter_cfg.c **** }
 202:Generated_Source\PSoC4/cyfitter_cfg.c **** 
 203:Generated_Source\PSoC4/cyfitter_cfg.c **** 
 204:Generated_Source\PSoC4/cyfitter_cfg.c **** /* Analog API Functions */
 205:Generated_Source\PSoC4/cyfitter_cfg.c **** 
 206:Generated_Source\PSoC4/cyfitter_cfg.c **** 
 207:Generated_Source\PSoC4/cyfitter_cfg.c **** /*******************************************************************************
 208:Generated_Source\PSoC4/cyfitter_cfg.c **** * Function Name: AnalogSetDefault
 209:Generated_Source\PSoC4/cyfitter_cfg.c **** ********************************************************************************
 210:Generated_Source\PSoC4/cyfitter_cfg.c **** *
 211:Generated_Source\PSoC4/cyfitter_cfg.c **** * Summary:
 212:Generated_Source\PSoC4/cyfitter_cfg.c **** *  Sets up the analog portions of the chip to default values based on chip
 213:Generated_Source\PSoC4/cyfitter_cfg.c **** *  configuration options from the project.
 214:Generated_Source\PSoC4/cyfitter_cfg.c **** *
 215:Generated_Source\PSoC4/cyfitter_cfg.c **** * Parameters:
 216:Generated_Source\PSoC4/cyfitter_cfg.c **** *  void
 217:Generated_Source\PSoC4/cyfitter_cfg.c **** *
 218:Generated_Source\PSoC4/cyfitter_cfg.c **** * Return:
 219:Generated_Source\PSoC4/cyfitter_cfg.c **** *  void
 220:Generated_Source\PSoC4/cyfitter_cfg.c **** *
 221:Generated_Source\PSoC4/cyfitter_cfg.c **** *******************************************************************************/
 222:Generated_Source\PSoC4/cyfitter_cfg.c **** static void AnalogSetDefault(void);
 223:Generated_Source\PSoC4/cyfitter_cfg.c **** static void AnalogSetDefault(void)
 224:Generated_Source\PSoC4/cyfitter_cfg.c **** {
 225:Generated_Source\PSoC4/cyfitter_cfg.c **** 	CY_SET_XTND_REG32((void CYFAR *)CYREG_CTBM0_DFT_CTRL, 0x00000003u);
 226:Generated_Source\PSoC4/cyfitter_cfg.c **** 	CY_SET_XTND_REG32((void CYFAR *)CYREG_CTBM1_DFT_CTRL, 0x00000003u);
 227:Generated_Source\PSoC4/cyfitter_cfg.c **** 	CY_SET_XTND_REG32((void CYFAR *)CYREG_SAR_CTRL, 0x80000000u);
 228:Generated_Source\PSoC4/cyfitter_cfg.c **** 	CY_SET_XTND_REG32((void CYFAR *)CYREG_SAR_MUX_SWITCH0, 0x00000001u);
 229:Generated_Source\PSoC4/cyfitter_cfg.c **** 	CY_SET_XTND_REG32((void CYFAR *)CYREG_PASS_DSAB_DSAB_CTRL, 0x00000000u);
 230:Generated_Source\PSoC4/cyfitter_cfg.c **** 	SetAnalogRoutingPumps(1);
 231:Generated_Source\PSoC4/cyfitter_cfg.c **** }
 232:Generated_Source\PSoC4/cyfitter_cfg.c **** 
 233:Generated_Source\PSoC4/cyfitter_cfg.c **** 
 234:Generated_Source\PSoC4/cyfitter_cfg.c **** /*******************************************************************************
 235:Generated_Source\PSoC4/cyfitter_cfg.c **** * Function Name: SetAnalogRoutingPumps
 236:Generated_Source\PSoC4/cyfitter_cfg.c **** ********************************************************************************
 237:Generated_Source\PSoC4/cyfitter_cfg.c **** *
ARM GAS  C:\Users\IYANG~1.DES\AppData\Local\Temp\cc9lGksf.s 			page 40


 238:Generated_Source\PSoC4/cyfitter_cfg.c **** * Summary:
 239:Generated_Source\PSoC4/cyfitter_cfg.c **** * Enables or disables the analog pumps feeding analog routing switches.
 240:Generated_Source\PSoC4/cyfitter_cfg.c **** * Intended to be called at startup, based on the Vdda system configuration;
 241:Generated_Source\PSoC4/cyfitter_cfg.c **** * may be called during operation when the user informs us that the Vdda voltage crossed the pump th
 242:Generated_Source\PSoC4/cyfitter_cfg.c **** *
 243:Generated_Source\PSoC4/cyfitter_cfg.c **** * Parameters:
 244:Generated_Source\PSoC4/cyfitter_cfg.c **** *  enabled - 1 to enable the pumps, 0 to disable the pumps
 245:Generated_Source\PSoC4/cyfitter_cfg.c **** *
 246:Generated_Source\PSoC4/cyfitter_cfg.c **** * Return:
 247:Generated_Source\PSoC4/cyfitter_cfg.c **** *  void
 248:Generated_Source\PSoC4/cyfitter_cfg.c **** *
 249:Generated_Source\PSoC4/cyfitter_cfg.c **** *******************************************************************************/
 250:Generated_Source\PSoC4/cyfitter_cfg.c **** void SetAnalogRoutingPumps(uint8 enabled)
 251:Generated_Source\PSoC4/cyfitter_cfg.c **** {
 458              		.loc 1 251 0
 459              		.cfi_startproc
 460              	.LVL0:
 252:Generated_Source\PSoC4/cyfitter_cfg.c **** 	uint32 regValue = CY_GET_XTND_REG32((void *)(CYREG_SAR_PUMP_CTRL));
 461              		.loc 1 252 0
 462 0000 064B     		ldr	r3, .L6
 463 0002 1B68     		ldr	r3, [r3]
 464              	.LVL1:
 253:Generated_Source\PSoC4/cyfitter_cfg.c **** 	if (enabled != 0u)
 465              		.loc 1 253 0
 466 0004 0028     		cmp	r0, #0
 467 0006 04D1     		bne	.L5
 254:Generated_Source\PSoC4/cyfitter_cfg.c **** 	{
 255:Generated_Source\PSoC4/cyfitter_cfg.c **** 		regValue |= 0x80000000u;
 256:Generated_Source\PSoC4/cyfitter_cfg.c **** 	}
 257:Generated_Source\PSoC4/cyfitter_cfg.c **** 	else
 258:Generated_Source\PSoC4/cyfitter_cfg.c **** 	{
 259:Generated_Source\PSoC4/cyfitter_cfg.c **** 		regValue &= ~0x80000000u;
 468              		.loc 1 259 0
 469 0008 5B00     		lsl	r3, r3, #1
 470              	.LVL2:
 471 000a 5B08     		lsr	r3, r3, #1
 472              	.LVL3:
 473              	.L3:
 260:Generated_Source\PSoC4/cyfitter_cfg.c **** 	}
 261:Generated_Source\PSoC4/cyfitter_cfg.c **** 	CY_SET_XTND_REG32((void *)(CYREG_SAR_PUMP_CTRL), regValue);
 474              		.loc 1 261 0
 475 000c 034A     		ldr	r2, .L6
 262:Generated_Source\PSoC4/cyfitter_cfg.c **** }
 476              		.loc 1 262 0
 477              		@ sp needed
 261:Generated_Source\PSoC4/cyfitter_cfg.c **** }
 478              		.loc 1 261 0
 479 000e 1360     		str	r3, [r2]
 480              		.loc 1 262 0
 481 0010 7047     		bx	lr
 482              	.L5:
 255:Generated_Source\PSoC4/cyfitter_cfg.c **** 	}
 483              		.loc 1 255 0
 484 0012 8022     		mov	r2, #128
 485 0014 1206     		lsl	r2, r2, #24
 486 0016 1343     		orr	r3, r2
 487              	.LVL4:
ARM GAS  C:\Users\IYANG~1.DES\AppData\Local\Temp\cc9lGksf.s 			page 41


 488 0018 F8E7     		b	.L3
 489              	.L7:
 490 001a C046     		.align	2
 491              	.L6:
 492 001c 80033A40 		.word	1077543808
 493              		.cfi_endproc
 494              	.LFE7:
 495              		.size	SetAnalogRoutingPumps, .-SetAnalogRoutingPumps
 496              		.section	.psocinit,"ax",%progbits
 497              		.align	2
 498              		.global	cyfitter_cfg
 499              		.code	16
 500              		.thumb_func
 501              		.type	cyfitter_cfg, %function
 502              	cyfitter_cfg:
 503              	.LFB8:
 263:Generated_Source\PSoC4/cyfitter_cfg.c **** 
 264:Generated_Source\PSoC4/cyfitter_cfg.c **** #define CY_AMUX_UNUSED CYREG_CM0_ROM_DWT
 265:Generated_Source\PSoC4/cyfitter_cfg.c **** 
 266:Generated_Source\PSoC4/cyfitter_cfg.c **** 
 267:Generated_Source\PSoC4/cyfitter_cfg.c **** /*******************************************************************************
 268:Generated_Source\PSoC4/cyfitter_cfg.c **** * Function Name: cyfitter_cfg
 269:Generated_Source\PSoC4/cyfitter_cfg.c **** ********************************************************************************
 270:Generated_Source\PSoC4/cyfitter_cfg.c **** * Summary:
 271:Generated_Source\PSoC4/cyfitter_cfg.c **** *  This function is called by the start-up code for the selected device. It
 272:Generated_Source\PSoC4/cyfitter_cfg.c **** *  performs all of the necessary device configuration based on the design
 273:Generated_Source\PSoC4/cyfitter_cfg.c **** *  settings.  This includes settings from the Design Wide Resources (DWR) such
 274:Generated_Source\PSoC4/cyfitter_cfg.c **** *  as Clocks and Pins as well as any component configuration that is necessary.
 275:Generated_Source\PSoC4/cyfitter_cfg.c **** *
 276:Generated_Source\PSoC4/cyfitter_cfg.c **** * Parameters:  
 277:Generated_Source\PSoC4/cyfitter_cfg.c **** *   void
 278:Generated_Source\PSoC4/cyfitter_cfg.c **** *
 279:Generated_Source\PSoC4/cyfitter_cfg.c **** * Return:
 280:Generated_Source\PSoC4/cyfitter_cfg.c **** *   void
 281:Generated_Source\PSoC4/cyfitter_cfg.c **** *
 282:Generated_Source\PSoC4/cyfitter_cfg.c **** *******************************************************************************/
 283:Generated_Source\PSoC4/cyfitter_cfg.c **** CY_CFG_SECTION
 284:Generated_Source\PSoC4/cyfitter_cfg.c **** void cyfitter_cfg(void)
 285:Generated_Source\PSoC4/cyfitter_cfg.c **** {
 504              		.loc 1 285 0
 505              		.cfi_startproc
 506 0000 F8B5     		push	{r3, r4, r5, r6, r7, lr}
 507              		.cfi_def_cfa_offset 24
 508              		.cfi_offset 3, -24
 509              		.cfi_offset 4, -20
 510              		.cfi_offset 5, -16
 511              		.cfi_offset 6, -12
 512              		.cfi_offset 7, -8
 513              		.cfi_offset 14, -4
 514 0002 4F46     		mov	r7, r9
 515 0004 4646     		mov	r6, r8
 516 0006 C0B4     		push	{r6, r7}
 517              		.cfi_def_cfa_offset 32
 518              		.cfi_offset 8, -32
 519              		.cfi_offset 9, -28
 286:Generated_Source\PSoC4/cyfitter_cfg.c **** 	/* Disable interrupts by default. Let user enable if/when they want. */
 287:Generated_Source\PSoC4/cyfitter_cfg.c **** 	CyGlobalIntDisable;
ARM GAS  C:\Users\IYANG~1.DES\AppData\Local\Temp\cc9lGksf.s 			page 42


 520              		.loc 1 287 0
 521              	@ 287 "Generated_Source\PSoC4\cyfitter_cfg.c" 1
 522 0008 72B6     		CPSID   i
 523              	@ 0 "" 2
 524              		.code	16
 525              	.LBB22:
 526              	.LBB23:
 527              	.LBB24:
 528              	.LBB25:
  62:Generated_Source\PSoC4/cyfitter_cfg.c **** }
 529              		.loc 1 62 0
 530 000a 8026     		mov	r6, #128
 531              	.LBE25:
 532              	.LBE24:
 533              	.LBE23:
 534              	.LBE22:
 288:Generated_Source\PSoC4/cyfitter_cfg.c **** 
 289:Generated_Source\PSoC4/cyfitter_cfg.c **** 	CY_SET_XTND_REG32((void CYFAR *)(CYREG_BLE_BLESS_LL_DSM_CTRL), 0x00000000u);
 535              		.loc 1 289 0
 536 000c 0024     		mov	r4, #0
 537 000e 4C4D     		ldr	r5, .L9
 538              	.LBB32:
 539              	.LBB30:
 540              	.LBB28:
 541              	.LBB26:
  62:Generated_Source\PSoC4/cyfitter_cfg.c **** }
 542              		.loc 1 62 0
 543 0010 F600     		lsl	r6, r6, #3
 544              	.LBE26:
 545              	.LBE28:
 546              	.LBE30:
 547              	.LBE32:
 548              		.loc 1 289 0
 549 0012 2C60     		str	r4, [r5]
 550              	.LVL5:
 551              	.LBB33:
 552              	.LBB31:
 553              	.LBB29:
 554              	.LBB27:
  62:Generated_Source\PSoC4/cyfitter_cfg.c **** }
 555              		.loc 1 62 0
 556 0014 321C     		mov	r2, r6
 557 0016 0021     		mov	r1, #0
 558 0018 4A48     		ldr	r0, .L9+4
 559 001a FFF7FEFF 		bl	memset
 560              	.LVL6:
 561 001e 321C     		mov	r2, r6
 562 0020 0021     		mov	r1, #0
 563 0022 4948     		ldr	r0, .L9+8
 564 0024 FFF7FEFF 		bl	memset
 565              	.LVL7:
 566              	.LBE27:
 567              	.LBE29:
 568              	.LBE31:
 290:Generated_Source\PSoC4/cyfitter_cfg.c **** 
 291:Generated_Source\PSoC4/cyfitter_cfg.c **** 	{
 292:Generated_Source\PSoC4/cyfitter_cfg.c **** 
ARM GAS  C:\Users\IYANG~1.DES\AppData\Local\Temp\cc9lGksf.s 			page 43


 293:Generated_Source\PSoC4/cyfitter_cfg.c **** 		CYPACKED typedef struct {
 294:Generated_Source\PSoC4/cyfitter_cfg.c **** 			void CYFAR *address;
 295:Generated_Source\PSoC4/cyfitter_cfg.c **** 			uint16 size;
 296:Generated_Source\PSoC4/cyfitter_cfg.c **** 		} CYPACKED_ATTR cfg_memset_t;
 297:Generated_Source\PSoC4/cyfitter_cfg.c **** 
 298:Generated_Source\PSoC4/cyfitter_cfg.c **** 		static const cfg_memset_t CYCODE cfg_memset_list [] = {
 299:Generated_Source\PSoC4/cyfitter_cfg.c **** 			/* address, size */
 300:Generated_Source\PSoC4/cyfitter_cfg.c **** 			{(void CYFAR *)(CYDEV_UDB_P0_U0_BASE), 1024u},
 301:Generated_Source\PSoC4/cyfitter_cfg.c **** 			{(void CYFAR *)(CYDEV_UDB_DSI0_BASE), 1024u},
 302:Generated_Source\PSoC4/cyfitter_cfg.c **** 		};
 303:Generated_Source\PSoC4/cyfitter_cfg.c **** 
 304:Generated_Source\PSoC4/cyfitter_cfg.c **** 		uint8 CYDATA i;
 305:Generated_Source\PSoC4/cyfitter_cfg.c **** 
 306:Generated_Source\PSoC4/cyfitter_cfg.c **** 		/* Zero out critical memory blocks before beginning configuration */
 307:Generated_Source\PSoC4/cyfitter_cfg.c **** 		for (i = 0u; i < (sizeof(cfg_memset_list)/sizeof(cfg_memset_list[0])); i++)
 308:Generated_Source\PSoC4/cyfitter_cfg.c **** 		{
 309:Generated_Source\PSoC4/cyfitter_cfg.c **** 			const cfg_memset_t CYCODE * CYDATA ms = &cfg_memset_list[i];
 310:Generated_Source\PSoC4/cyfitter_cfg.c **** 			CYMEMZERO(ms->address, (size_t)(uint32)(ms->size));
 311:Generated_Source\PSoC4/cyfitter_cfg.c **** 		}
 312:Generated_Source\PSoC4/cyfitter_cfg.c **** 
 313:Generated_Source\PSoC4/cyfitter_cfg.c **** 		/* HSIOM Starting address: CYDEV_HSIOM_BASE */
 314:Generated_Source\PSoC4/cyfitter_cfg.c **** 		CY_SET_XTND_REG32((void CYFAR *)(CYDEV_HSIOM_BASE), 0xEE000000u);
 569              		.loc 1 314 0
 570 0028 EE22     		mov	r2, #238
 571 002a 484B     		ldr	r3, .L9+12
 572 002c 1206     		lsl	r2, r2, #24
 573 002e 1A60     		str	r2, [r3]
 315:Generated_Source\PSoC4/cyfitter_cfg.c **** 
 316:Generated_Source\PSoC4/cyfitter_cfg.c **** 		/* UDB_PA_0 Starting address: CYDEV_UDB_PA0_BASE */
 317:Generated_Source\PSoC4/cyfitter_cfg.c **** 		CY_SET_XTND_REG32((void CYFAR *)(CYDEV_UDB_PA0_BASE), 0x00990000u);
 574              		.loc 1 317 0
 575 0030 9923     		mov	r3, #153
 576 0032 474A     		ldr	r2, .L9+16
 577 0034 1B04     		lsl	r3, r3, #16
 578 0036 1360     		str	r3, [r2]
 318:Generated_Source\PSoC4/cyfitter_cfg.c **** 
 319:Generated_Source\PSoC4/cyfitter_cfg.c **** 		/* UDB_PA_2 Starting address: CYDEV_UDB_PA2_BASE */
 320:Generated_Source\PSoC4/cyfitter_cfg.c **** 		CY_SET_XTND_REG32((void CYFAR *)(CYDEV_UDB_PA2_BASE), 0x00990000u);
 579              		.loc 1 320 0
 580 0038 464A     		ldr	r2, .L9+20
 321:Generated_Source\PSoC4/cyfitter_cfg.c **** 
 322:Generated_Source\PSoC4/cyfitter_cfg.c **** 		/* UDB_PA_3 Starting address: CYDEV_UDB_PA3_BASE */
 323:Generated_Source\PSoC4/cyfitter_cfg.c **** 		CY_SET_XTND_REG32((void CYFAR *)(CYDEV_UDB_PA3_BASE), 0x00990000u);
 324:Generated_Source\PSoC4/cyfitter_cfg.c **** 
 325:Generated_Source\PSoC4/cyfitter_cfg.c **** 		/* Enable digital routing */
 326:Generated_Source\PSoC4/cyfitter_cfg.c **** 		CY_SET_XTND_REG8((void *)CYREG_UDB_UDBIF_BANK_CTL, CY_GET_XTND_REG8((void *)CYREG_UDB_UDBIF_BANK_
 327:Generated_Source\PSoC4/cyfitter_cfg.c **** 
 328:Generated_Source\PSoC4/cyfitter_cfg.c **** 		/* Enable UDB array */
 329:Generated_Source\PSoC4/cyfitter_cfg.c **** 		CY_SET_XTND_REG8((void *)CYREG_UDB_UDBIF_WAIT_CFG, (uint8)((CY_GET_XTND_REG8((void *)CYREG_UDB_UD
 581              		.loc 1 329 0
 582 003a 4748     		ldr	r0, .L9+24
 320:Generated_Source\PSoC4/cyfitter_cfg.c **** 
 583              		.loc 1 320 0
 584 003c 1360     		str	r3, [r2]
 323:Generated_Source\PSoC4/cyfitter_cfg.c **** 
 585              		.loc 1 323 0
 586 003e 474A     		ldr	r2, .L9+28
ARM GAS  C:\Users\IYANG~1.DES\AppData\Local\Temp\cc9lGksf.s 			page 44


 587              	.LBE33:
 330:Generated_Source\PSoC4/cyfitter_cfg.c **** 		CY_SET_XTND_REG8((void *)CYREG_UDB_UDBIF_BANK_CTL, (uint8)(CY_GET_XTND_REG8((void *)CYREG_UDB_UDB
 331:Generated_Source\PSoC4/cyfitter_cfg.c **** 	}
 332:Generated_Source\PSoC4/cyfitter_cfg.c **** 
 333:Generated_Source\PSoC4/cyfitter_cfg.c **** 	/* Perform second pass device configuration. These items must be configured in specific order afte
 334:Generated_Source\PSoC4/cyfitter_cfg.c **** 	/* IOPINS0_0 Starting address: CYDEV_GPIO_PRT0_BASE */
 335:Generated_Source\PSoC4/cyfitter_cfg.c **** 	CY_SET_XTND_REG32((void CYFAR *)(CYREG_GPIO_PRT0_PC), 0x00D80000u);
 336:Generated_Source\PSoC4/cyfitter_cfg.c **** 
 337:Generated_Source\PSoC4/cyfitter_cfg.c **** 	/* IOPINS0_2 Starting address: CYDEV_GPIO_PRT2_BASE */
 338:Generated_Source\PSoC4/cyfitter_cfg.c **** 	CY_SET_XTND_REG32((void CYFAR *)(CYDEV_GPIO_PRT2_BASE), 0x000000C0u);
 339:Generated_Source\PSoC4/cyfitter_cfg.c **** 	CY_SET_XTND_REG32((void CYFAR *)(CYREG_GPIO_PRT2_PC), 0x00580000u);
 340:Generated_Source\PSoC4/cyfitter_cfg.c **** 	CY_SET_XTND_REG32((void CYFAR *)(CYREG_GPIO_PRT2_INTR_CFG), 0x00004000u);
 341:Generated_Source\PSoC4/cyfitter_cfg.c **** 
 342:Generated_Source\PSoC4/cyfitter_cfg.c **** 	/* IOPINS0_3 Starting address: CYDEV_GPIO_PRT3_BASE */
 343:Generated_Source\PSoC4/cyfitter_cfg.c **** 	CY_SET_XTND_REG32((void CYFAR *)(CYDEV_GPIO_PRT3_BASE), 0x00000041u);
 344:Generated_Source\PSoC4/cyfitter_cfg.c **** 	CY_SET_XTND_REG32((void CYFAR *)(CYREG_GPIO_PRT3_PC), 0x00180000u);
 345:Generated_Source\PSoC4/cyfitter_cfg.c **** 	CY_SET_XTND_REG32((void CYFAR *)(CYREG_GPIO_PRT3_PC2), 0x00000001u);
 588              		.loc 1 345 0
 589 0040 0126     		mov	r6, #1
 590              	.LBB34:
 323:Generated_Source\PSoC4/cyfitter_cfg.c **** 
 591              		.loc 1 323 0
 592 0042 1360     		str	r3, [r2]
 326:Generated_Source\PSoC4/cyfitter_cfg.c **** 
 593              		.loc 1 326 0
 594 0044 0222     		mov	r2, #2
 595 0046 464B     		ldr	r3, .L9+32
 596              	.LBE34:
 597              	.LBB35:
 598              	.LBB36:
 158:Generated_Source\PSoC4/cyfitter_cfg.c **** 
 599              		.loc 1 158 0
 600 0048 464F     		ldr	r7, .L9+36
 601              	.LBE36:
 602              	.LBE35:
 603              	.LBB41:
 326:Generated_Source\PSoC4/cyfitter_cfg.c **** 
 604              		.loc 1 326 0
 605 004a 1978     		ldrb	r1, [r3]
 606              	.LBE41:
 346:Generated_Source\PSoC4/cyfitter_cfg.c **** 
 347:Generated_Source\PSoC4/cyfitter_cfg.c **** 
 348:Generated_Source\PSoC4/cyfitter_cfg.c **** 	/* Setup clocks based on selections from Clock DWR */
 349:Generated_Source\PSoC4/cyfitter_cfg.c **** 	ClockSetup();
 350:Generated_Source\PSoC4/cyfitter_cfg.c **** 
 351:Generated_Source\PSoC4/cyfitter_cfg.c **** 	/* Perform basic analog initialization to defaults */
 352:Generated_Source\PSoC4/cyfitter_cfg.c **** 	AnalogSetDefault();
 353:Generated_Source\PSoC4/cyfitter_cfg.c **** 
 354:Generated_Source\PSoC4/cyfitter_cfg.c **** }
 607              		.loc 1 354 0
 608              		@ sp needed
 609              	.LBB42:
 326:Generated_Source\PSoC4/cyfitter_cfg.c **** 
 610              		.loc 1 326 0
 611 004c 0A43     		orr	r2, r1
 329:Generated_Source\PSoC4/cyfitter_cfg.c **** 		CY_SET_XTND_REG8((void *)CYREG_UDB_UDBIF_BANK_CTL, (uint8)(CY_GET_XTND_REG8((void *)CYREG_UDB_UDB
 612              		.loc 1 329 0
ARM GAS  C:\Users\IYANG~1.DES\AppData\Local\Temp\cc9lGksf.s 			page 45


 613 004e 3C21     		mov	r1, #60
 326:Generated_Source\PSoC4/cyfitter_cfg.c **** 
 614              		.loc 1 326 0
 615 0050 1A70     		strb	r2, [r3]
 329:Generated_Source\PSoC4/cyfitter_cfg.c **** 		CY_SET_XTND_REG8((void *)CYREG_UDB_UDBIF_BANK_CTL, (uint8)(CY_GET_XTND_REG8((void *)CYREG_UDB_UDB
 616              		.loc 1 329 0
 617 0052 0278     		ldrb	r2, [r0]
 618 0054 8A43     		bic	r2, r1
 619 0056 2839     		sub	r1, r1, #40
 620 0058 0A43     		orr	r2, r1
 621 005a 0270     		strb	r2, [r0]
 330:Generated_Source\PSoC4/cyfitter_cfg.c **** 	}
 622              		.loc 1 330 0
 623 005c 1622     		mov	r2, #22
 624 005e 1978     		ldrb	r1, [r3]
 625 0060 0A43     		orr	r2, r1
 626 0062 1A70     		strb	r2, [r3]
 627              	.LBE42:
 335:Generated_Source\PSoC4/cyfitter_cfg.c **** 
 628              		.loc 1 335 0
 629 0064 D822     		mov	r2, #216
 630 0066 404B     		ldr	r3, .L9+40
 631 0068 1204     		lsl	r2, r2, #16
 632 006a 1A60     		str	r2, [r3]
 338:Generated_Source\PSoC4/cyfitter_cfg.c **** 	CY_SET_XTND_REG32((void CYFAR *)(CYREG_GPIO_PRT2_PC), 0x00580000u);
 633              		.loc 1 338 0
 634 006c C022     		mov	r2, #192
 635 006e 3F4B     		ldr	r3, .L9+44
 636 0070 1A60     		str	r2, [r3]
 339:Generated_Source\PSoC4/cyfitter_cfg.c **** 	CY_SET_XTND_REG32((void CYFAR *)(CYREG_GPIO_PRT2_INTR_CFG), 0x00004000u);
 637              		.loc 1 339 0
 638 0072 B022     		mov	r2, #176
 639 0074 3E4B     		ldr	r3, .L9+48
 640 0076 D203     		lsl	r2, r2, #15
 641 0078 1A60     		str	r2, [r3]
 340:Generated_Source\PSoC4/cyfitter_cfg.c **** 
 642              		.loc 1 340 0
 643 007a 8022     		mov	r2, #128
 644 007c 3D4B     		ldr	r3, .L9+52
 645 007e D201     		lsl	r2, r2, #7
 646 0080 1A60     		str	r2, [r3]
 343:Generated_Source\PSoC4/cyfitter_cfg.c **** 	CY_SET_XTND_REG32((void CYFAR *)(CYREG_GPIO_PRT3_PC), 0x00180000u);
 647              		.loc 1 343 0
 648 0082 4122     		mov	r2, #65
 649 0084 3C4B     		ldr	r3, .L9+56
 650 0086 1A60     		str	r2, [r3]
 344:Generated_Source\PSoC4/cyfitter_cfg.c **** 	CY_SET_XTND_REG32((void CYFAR *)(CYREG_GPIO_PRT3_PC2), 0x00000001u);
 651              		.loc 1 344 0
 652 0088 C022     		mov	r2, #192
 653 008a 3C4B     		ldr	r3, .L9+60
 654 008c 5203     		lsl	r2, r2, #13
 655 008e 1A60     		str	r2, [r3]
 345:Generated_Source\PSoC4/cyfitter_cfg.c **** 
 656              		.loc 1 345 0
 657 0090 3B4B     		ldr	r3, .L9+64
 658 0092 1E60     		str	r6, [r3]
 659              	.LBB43:
ARM GAS  C:\Users\IYANG~1.DES\AppData\Local\Temp\cc9lGksf.s 			page 46


 660              	.LBB37:
 158:Generated_Source\PSoC4/cyfitter_cfg.c **** 
 661              		.loc 1 158 0
 662 0094 1223     		mov	r3, #18
 663 0096 3B60     		str	r3, [r7]
 161:Generated_Source\PSoC4/cyfitter_cfg.c **** 	CyDelayCycles(12000000u); /* WCO may take up to 500ms to start */
 664              		.loc 1 161 0
 665 0098 FFF7FEFF 		bl	CySysClkWcoStart
 666              	.LVL8:
 162:Generated_Source\PSoC4/cyfitter_cfg.c **** 	(void)CySysClkWcoSetPowerMode(CY_SYS_CLK_WCO_LPM);    /* Switch to the low power mode */
 667              		.loc 1 162 0
 668 009c 3948     		ldr	r0, .L9+68
 669 009e FFF7FEFF 		bl	CyDelayCycles
 670              	.LVL9:
 163:Generated_Source\PSoC4/cyfitter_cfg.c **** 
 671              		.loc 1 163 0
 672 00a2 0120     		mov	r0, #1
 673 00a4 FFF7FEFF 		bl	CySysClkWcoSetPowerMode
 674              	.LVL10:
 166:Generated_Source\PSoC4/cyfitter_cfg.c **** 	/* CYDEV_CLK_ILO_CONFIG Starting address: CYDEV_CLK_ILO_CONFIG */
 675              		.loc 1 166 0
 676 00a8 1020     		mov	r0, #16
 677 00aa FFF7FEFF 		bl	CySysClkWriteImoFreq
 678              	.LVL11:
 168:Generated_Source\PSoC4/cyfitter_cfg.c **** 
 679              		.loc 1 168 0
 680 00ae 364A     		ldr	r2, .L9+72
 681 00b0 364B     		ldr	r3, .L9+76
 182:Generated_Source\PSoC4/cyfitter_cfg.c **** 	CyDelayUs(1500u); /* Wait to stabalize */
 682              		.loc 1 182 0
 683 00b2 FA20     		mov	r0, #250
 168:Generated_Source\PSoC4/cyfitter_cfg.c **** 
 684              		.loc 1 168 0
 685 00b4 1A60     		str	r2, [r3]
 171:Generated_Source\PSoC4/cyfitter_cfg.c **** 
 686              		.loc 1 171 0
 687 00b6 364B     		ldr	r3, .L9+80
 182:Generated_Source\PSoC4/cyfitter_cfg.c **** 	CyDelayUs(1500u); /* Wait to stabalize */
 688              		.loc 1 182 0
 689 00b8 C000     		lsl	r0, r0, #3
 171:Generated_Source\PSoC4/cyfitter_cfg.c **** 
 690              		.loc 1 171 0
 691 00ba 9846     		mov	r8, r3
 692 00bc 8023     		mov	r3, #128
 693 00be DB05     		lsl	r3, r3, #23
 694 00c0 9946     		mov	r9, r3
 695 00c2 4346     		mov	r3, r8
 696 00c4 4A46     		mov	r2, r9
 697 00c6 1A60     		str	r2, [r3]
 175:Generated_Source\PSoC4/cyfitter_cfg.c **** 	CY_SET_XTND_REG32((void CYFAR *)(CYREG_BLE_BLERD_BB_XO_CAPTRIM), 0x00002D6Au);
 698              		.loc 1 175 0
 699 00c8 0223     		mov	r3, #2
 700 00ca 324A     		ldr	r2, .L9+84
 701 00cc 1168     		ldr	r1, [r2]
 702 00ce 0B43     		orr	r3, r1
 703 00d0 1360     		str	r3, [r2]
 176:Generated_Source\PSoC4/cyfitter_cfg.c **** 	/*Set XTAL(ECO) divider*/
ARM GAS  C:\Users\IYANG~1.DES\AppData\Local\Temp\cc9lGksf.s 			page 47


 704              		.loc 1 176 0
 705 00d2 314A     		ldr	r2, .L9+88
 706 00d4 314B     		ldr	r3, .L9+92
 707 00d6 1A60     		str	r2, [r3]
 180:Generated_Source\PSoC4/cyfitter_cfg.c **** 	/* Start the ECO and do not check status since it is not needed for HFCLK */
 708              		.loc 1 180 0
 709 00d8 0822     		mov	r2, #8
 178:Generated_Source\PSoC4/cyfitter_cfg.c **** 	/* Disable Crystal Stable Interrupt before enabling ECO */
 710              		.loc 1 178 0
 711 00da 314B     		ldr	r3, .L9+96
 712 00dc 1C60     		str	r4, [r3]
 180:Generated_Source\PSoC4/cyfitter_cfg.c **** 	/* Start the ECO and do not check status since it is not needed for HFCLK */
 713              		.loc 1 180 0
 714 00de 2B68     		ldr	r3, [r5]
 715 00e0 9343     		bic	r3, r2
 716 00e2 2B60     		str	r3, [r5]
 182:Generated_Source\PSoC4/cyfitter_cfg.c **** 	CyDelayUs(1500u); /* Wait to stabalize */
 717              		.loc 1 182 0
 718 00e4 FFF7FEFF 		bl	CySysClkEcoStart
 719              	.LVL12:
 183:Generated_Source\PSoC4/cyfitter_cfg.c **** 
 720              		.loc 1 183 0
 721 00e8 2E48     		ldr	r0, .L9+100
 722 00ea FFF7FEFF 		bl	CyDelayUs
 723              	.LVL13:
 186:Generated_Source\PSoC4/cyfitter_cfg.c **** 	CY_SET_REG32((void *)CYREG_PERI_DIV_CMD, 0x8000FF40u);
 724              		.loc 1 186 0
 725 00ee 8022     		mov	r2, #128
 726 00f0 2D4B     		ldr	r3, .L9+104
 727 00f2 9200     		lsl	r2, r2, #2
 728 00f4 1A60     		str	r2, [r3]
 187:Generated_Source\PSoC4/cyfitter_cfg.c **** 
 729              		.loc 1 187 0
 730 00f6 2D4A     		ldr	r2, .L9+108
 731 00f8 2D4B     		ldr	r3, .L9+112
 732              	.LBE37:
 733              	.LBE43:
 734              	.LBB44:
 735              	.LBB45:
 227:Generated_Source\PSoC4/cyfitter_cfg.c **** 	CY_SET_XTND_REG32((void CYFAR *)CYREG_SAR_MUX_SWITCH0, 0x00000001u);
 736              		.loc 1 227 0
 737 00fa 8021     		mov	r1, #128
 738              	.LBE45:
 739              	.LBE44:
 740              	.LBB53:
 741              	.LBB38:
 187:Generated_Source\PSoC4/cyfitter_cfg.c **** 
 742              		.loc 1 187 0
 743 00fc 1A60     		str	r2, [r3]
 190:Generated_Source\PSoC4/cyfitter_cfg.c **** 
 744              		.loc 1 190 0
 745 00fe A622     		mov	r2, #166
 746 0100 2C4B     		ldr	r3, .L9+116
 747 0102 1206     		lsl	r2, r2, #24
 748 0104 1A60     		str	r2, [r3]
 196:Generated_Source\PSoC4/cyfitter_cfg.c **** 
 749              		.loc 1 196 0
ARM GAS  C:\Users\IYANG~1.DES\AppData\Local\Temp\cc9lGksf.s 			page 48


 750 0106 4022     		mov	r2, #64
 193:Generated_Source\PSoC4/cyfitter_cfg.c **** 
 751              		.loc 1 193 0
 752 0108 2B4B     		ldr	r3, .L9+120
 753              	.LBE38:
 754              	.LBE53:
 755              	.LBB54:
 756              	.LBB50:
 227:Generated_Source\PSoC4/cyfitter_cfg.c **** 	CY_SET_XTND_REG32((void CYFAR *)CYREG_SAR_MUX_SWITCH0, 0x00000001u);
 757              		.loc 1 227 0
 758 010a 0906     		lsl	r1, r1, #24
 759              	.LBE50:
 760              	.LBE54:
 761              	.LBB55:
 762              	.LBB39:
 193:Generated_Source\PSoC4/cyfitter_cfg.c **** 
 763              		.loc 1 193 0
 764 010c 1C60     		str	r4, [r3]
 196:Generated_Source\PSoC4/cyfitter_cfg.c **** 
 765              		.loc 1 196 0
 766 010e 2B4B     		ldr	r3, .L9+124
 767 0110 1A60     		str	r2, [r3]
 198:Generated_Source\PSoC4/cyfitter_cfg.c **** 	/* Set Flash Cycles based on newly configured 16.00MHz HFCLK. */
 768              		.loc 1 198 0
 769 0112 4346     		mov	r3, r8
 770 0114 4A46     		mov	r2, r9
 771 0116 1A60     		str	r2, [r3]
 772              	.LBE39:
 773              	.LBE55:
 774              	.LBB56:
 775              	.LBB51:
 225:Generated_Source\PSoC4/cyfitter_cfg.c **** 	CY_SET_XTND_REG32((void CYFAR *)CYREG_CTBM1_DFT_CTRL, 0x00000003u);
 776              		.loc 1 225 0
 777 0118 0323     		mov	r3, #3
 778 011a 294A     		ldr	r2, .L9+128
 779              	.LBE51:
 780              	.LBE56:
 781              	.LBB57:
 782              	.LBB40:
 200:Generated_Source\PSoC4/cyfitter_cfg.c **** }
 783              		.loc 1 200 0
 784 011c 3C60     		str	r4, [r7]
 785              	.LBE40:
 786              	.LBE57:
 787              	.LBB58:
 788              	.LBB52:
 225:Generated_Source\PSoC4/cyfitter_cfg.c **** 	CY_SET_XTND_REG32((void CYFAR *)CYREG_CTBM1_DFT_CTRL, 0x00000003u);
 789              		.loc 1 225 0
 790 011e 1360     		str	r3, [r2]
 226:Generated_Source\PSoC4/cyfitter_cfg.c **** 	CY_SET_XTND_REG32((void CYFAR *)CYREG_SAR_CTRL, 0x80000000u);
 791              		.loc 1 226 0
 792 0120 284A     		ldr	r2, .L9+132
 793 0122 1360     		str	r3, [r2]
 227:Generated_Source\PSoC4/cyfitter_cfg.c **** 	CY_SET_XTND_REG32((void CYFAR *)CYREG_SAR_MUX_SWITCH0, 0x00000001u);
 794              		.loc 1 227 0
 795 0124 284B     		ldr	r3, .L9+136
 796              	.LBB46:
ARM GAS  C:\Users\IYANG~1.DES\AppData\Local\Temp\cc9lGksf.s 			page 49


 797              	.LBB47:
 252:Generated_Source\PSoC4/cyfitter_cfg.c **** 	if (enabled != 0u)
 798              		.loc 1 252 0
 799 0126 294A     		ldr	r2, .L9+140
 800              	.LBE47:
 801              	.LBE46:
 227:Generated_Source\PSoC4/cyfitter_cfg.c **** 	CY_SET_XTND_REG32((void CYFAR *)CYREG_SAR_MUX_SWITCH0, 0x00000001u);
 802              		.loc 1 227 0
 803 0128 1960     		str	r1, [r3]
 228:Generated_Source\PSoC4/cyfitter_cfg.c **** 	CY_SET_XTND_REG32((void CYFAR *)CYREG_PASS_DSAB_DSAB_CTRL, 0x00000000u);
 804              		.loc 1 228 0
 805 012a 294B     		ldr	r3, .L9+144
 806 012c 1E60     		str	r6, [r3]
 229:Generated_Source\PSoC4/cyfitter_cfg.c **** 	SetAnalogRoutingPumps(1);
 807              		.loc 1 229 0
 808 012e 294B     		ldr	r3, .L9+148
 809 0130 1C60     		str	r4, [r3]
 810              	.LVL14:
 811              	.LBB49:
 812              	.LBB48:
 252:Generated_Source\PSoC4/cyfitter_cfg.c **** 	if (enabled != 0u)
 813              		.loc 1 252 0
 814 0132 1368     		ldr	r3, [r2]
 815              	.LVL15:
 255:Generated_Source\PSoC4/cyfitter_cfg.c **** 	}
 816              		.loc 1 255 0
 817 0134 0B43     		orr	r3, r1
 818              	.LVL16:
 261:Generated_Source\PSoC4/cyfitter_cfg.c **** }
 819              		.loc 1 261 0
 820 0136 1360     		str	r3, [r2]
 821              	.LBE48:
 822              	.LBE49:
 823              	.LBE52:
 824              	.LBE58:
 825              		.loc 1 354 0
 826 0138 0CBC     		pop	{r2, r3}
 827 013a 9046     		mov	r8, r2
 828 013c 9946     		mov	r9, r3
 829 013e F8BD     		pop	{r3, r4, r5, r6, r7, pc}
 830              	.L10:
 831              		.align	2
 832              	.L9:
 833 0140 6CF02E40 		.word	1076818028
 834 0144 00300F40 		.word	1074737152
 835 0148 00400F40 		.word	1074741248
 836 014c 00000240 		.word	1073872896
 837 0150 00500F40 		.word	1074745344
 838 0154 20500F40 		.word	1074745376
 839 0158 01700F40 		.word	1074753537
 840 015c 30500F40 		.word	1074745392
 841 0160 00700F40 		.word	1074753536
 842 0164 30001040 		.word	1074790448
 843 0168 08000440 		.word	1074003976
 844 016c 00020440 		.word	1074004480
 845 0170 08020440 		.word	1074004488
 846 0174 0C020440 		.word	1074004492
ARM GAS  C:\Users\IYANG~1.DES\AppData\Local\Temp\cc9lGksf.s 			page 50


 847 0178 00030440 		.word	1074004736
 848 017c 08030440 		.word	1074004744
 849 0180 18030440 		.word	1074004760
 850 0184 001BB700 		.word	12000000
 851 0188 06000080 		.word	-2147483642
 852 018c 04010B40 		.word	1074462980
 853 0190 0C020B40 		.word	1074463244
 854 0194 78002E40 		.word	1076756600
 855 0198 6A2D0000 		.word	11626
 856 019c 7C002E40 		.word	1076756604
 857 01a0 64F02E40 		.word	1076818020
 858 01a4 DC050000 		.word	1500
 859 01a8 00030140 		.word	1073808128
 860 01ac 40FF0080 		.word	-2147418304
 861 01b0 00000140 		.word	1073807360
 862 01b4 08010B40 		.word	1074462984
 863 01b8 00010B40 		.word	1074462976
 864 01bc 18010140 		.word	1073807640
 865 01c0 30003040 		.word	1076887600
 866 01c4 30003140 		.word	1076953136
 867 01c8 00003A40 		.word	1077542912
 868 01cc 80033A40 		.word	1077543808
 869 01d0 00033A40 		.word	1077543680
 870 01d4 000E3F40 		.word	1077874176
 871              		.cfi_endproc
 872              	.LFE8:
 873              		.size	cyfitter_cfg, .-cyfitter_cfg
 874              		.text
 875              	.Letext0:
 876              		.file 2 "d:\\program files\\cypress\\psoc creator\\4.0\\psoc creator\\import\\gnu\\arm\\4.9.3\\lib
 877              		.file 3 "Generated_Source\\PSoC4\\cytypes.h"
 878              		.file 4 "Generated_Source\\PSoC4\\CyLib.h"
 879              		.file 5 "Generated_Source\\PSoC4\\CyLFClk.h"