ARM GAS  C:\Users\IYANG~1.DES\AppData\Local\Temp\ccPqxEDZ.s 			page 1


   1              		.cpu cortex-m0
   2              		.fpu softvfp
   3              		.eabi_attribute 20, 1
   4              		.eabi_attribute 21, 1
   5              		.eabi_attribute 23, 3
   6              		.eabi_attribute 24, 1
   7              		.eabi_attribute 25, 1
   8              		.eabi_attribute 26, 1
   9              		.eabi_attribute 30, 2
  10              		.eabi_attribute 34, 0
  11              		.eabi_attribute 18, 4
  12              		.code	16
  13              		.file	"CyFlash.c"
  14              		.text
  15              	.Ltext0:
  16              		.section	.gnu.lto_.profile.18139b06,"",%progbits
  17 0000 789C6366 		.ascii	"x\234cf```c\200\000F\206/L\317\031\001\006G\001\351"
  17      60606063 
  17      80004686 
  17      2F4CCF19 
  17      01064701 
  18              		.text
  19              		.section	.gnu.lto_.jmpfuncs.18139b06,"",%progbits
  20 0000 789C6D8D 		.ascii	"x\234m\2151\016\202P\020D\347\355\007\214W\340\242\226"
  20      310E8250 
  20      1044E7ED 
  20      078C57E0 
  20      A296
  21 0012 1F7B0A42 		.ascii	"\037{\012Bbgb\247x\006=\214%\224\2264\342_\240\"L\262"
  21      626762A7 
  21      78063D8C 
  21      25949634 
  21      E25FA022 
  22 0028 D964DECE 		.ascii	"\331d\336\316l\320\276\232u\027iL\012Rf\020bd\361\223"
  22      6CD0BE9A 
  22      7517694C 
  22      0A526610 
  22      6264F193 
  23 003c 114E20FB 		.ascii	"\021N \373\032\227\367\265=\3666\232*\304\203R9\340"
  23      1A97F7B5 
  23      3DF6369A 
  23      2AC48352 
  23      39E0
  24 004e 97383EDF 		.ascii	"\2278>\337_\365\301\261\033]\242*6U\360\231V\221\002"
  24      5FF5C1B1 
  24      1B5DA22A 
  24      3655F099 
  24      569102
  25 0061 B7E1D767 		.ascii	"\267\341\327g\036\260(\236\224\313\243\271X\177\373"
  25      1EB0289E 
  25      94CBA3B9 
  25      587FFB
  26 0070 382229   		.ascii	"8\")"
  27              		.text
  28              		.section	.gnu.lto_.inline.18139b06,"",%progbits
  29 0000 789C9D90 		.ascii	"x\234\235\220\273J\003A\030\205\317?;\273;\030\263."
  29      BB4A0341 
ARM GAS  C:\Users\IYANG~1.DES\AppData\Local\Temp\ccPqxEDZ.s 			page 2


  29      1885CF3F 
  29      3BBB3B18 
  29      B32E
  30 0012 D12A8859 		.ascii	"\321*\210Y\255R\211\217\340\023\244\364\015\022\324"
  30      AD52898F 
  30      E013A4F4 
  30      0D12D4
  31 0021 A7D84EB1 		.ascii	"\247\330N\261Z\304\302B0E\304K\022\305NA-l\275\246\264"
  31      5AC4C242 
  31      3045C44B 
  31      12C54E41 
  31      2D6CBDA6 
  32 0036 080B2298 		.ascii	"\010\013\"\230RQ1\202$\316e\203\012\333\350\260\263"
  32      52513182 
  32      24CE6583 
  32      0ADBE8B0 
  32      B3
  33 0047 6738DFC0 		.ascii	"g8\337\300\374\347XH_s\314\250\0031\346\023\330\324"
  33      FCE75848 
  33      5F73CCA8 
  33      0331E613 
  33      D8D4
  34 0059 499BE054 		.ascii	"I\233\340T\013\332f\310y\322\233\3308\373\366\254\224"
  34      0BDA66C8 
  34      79D29BD8 
  34      38FBF6AC 
  34      94
  35 006a 7B3CA216 		.ascii	"{<\242\026\306I\240\374\314h\351\261}8\334a\037\314"
  35      C649A0FC 
  35      CC68E9B1 
  35      7D38DC61 
  35      1FCC
  36 007c EABBA06D 		.ascii	"\352\273\240m\312\003\025-\264 i\374p\323\022\212r\200"
  36      CA03152D 
  36      B42069FC 
  36      70D3128A 
  36      7280
  37 008e 76943BAF 		.ascii	"v\224;\257\005\025\011W\357\216N]\005\355\276\005\332"
  37      05150957 
  37      EF8E4E5D 
  37      05EDBE05 
  37      DA
  38 009f 5576D908 		.ascii	"Uv\331\010\311On\327y\2326\257\362j!\224\377\333\221"
  38      C94F6ED7 
  38      799A36AF 
  38      F26A2194 
  38      FFDB91
  39 00b2 9073B0B5 		.ascii	"\220s\260\265\241\"\234\317L\310|\216\305\313\025\222"
  39      A1229CCF 
  39      4CC87C8E 
  39      C5CB1592 
  40 00c2 A2C6CF40 		.ascii	"\242\306\317@\036(*\231\003R\205g\225X\210J\260\221"
  40      1E282A99 
  40      03528567 
  40      9558884A 
  40      B091
  41 00d4 9F245787 		.ascii	"\237$W\207\270\270\357\276\350\020\266\017\3323\031"
ARM GAS  C:\Users\IYANG~1.DES\AppData\Local\Temp\ccPqxEDZ.s 			page 3


  41      B8B8EFBE 
  41      E810B60F 
  41      DA3319
  42 00e3 B42878BC 		.ascii	"\264(x\274\377z\225\3210\000\325\015\254\017`\374\036"
  42      FF7A95D1 
  42      3000D50D 
  42      AC0F60FC 
  42      1E
  43 00f4 9F9B0C33 		.ascii	"\237\233\0143\240\206\201\215$\202PE\377\230~y4dB\206"
  43      A086818D 
  43      24825045 
  43      FF987E79 
  43      34644286 
  44 0108 90830702 		.ascii	"\220\203\007\002b\335\233U\322\361|\001\247\226\033"
  44      62DD9B55 
  44      D2F17C01 
  44      A7961B
  45 0117 64481284 		.ascii	"dH\022\204$!i\003ND\327\010\222\302\0176\337z\244\013"
  45      24216903 
  45      4E44D708 
  45      92C20F36 
  45      DF7AA40B 
  46 012b 97A535CD 		.ascii	"\227\2455\315\213M\335\367\357\202\377RhO\024\301kY"
  46      8B4DDDF7 
  46      EF82FF52 
  46      684F14C1 
  46      6B59
  47 013d 5D68A5BB 		.ascii	"]h\245\273\365\317B\361\005\017\273n\245"
  47      F5CF42F1 
  47      050FBB6E 
  47      A5
  48              		.text
  49              		.section	.gnu.lto_.pureconst.18139b06,"",%progbits
  50 0000 789C6366 		.ascii	"x\234cf``\340e\200\0006\006+&+f+\026+V)6+\000\011\357"
  50      6060E065 
  50      80003606 
  50      2B262B66 
  50      2B162B56 
  51 001a 0167     		.ascii	"\001g"
  52              		.text
  53              		.section	.gnu.lto_CySysFlashClockBackup.18139b06,"",%progbits
  54 0000 789C7D54 		.ascii	"x\234}T_LSW\030?\3379\367\037\267\264\227-\233\017d"
  54      5F4C5357 
  54      183FDF39 
  54      F71FB7B4 
  54      972D9B0F 
  55 0015 5B6658C2 		.ascii	"[fX\302^\260/{\360e\316\304d{S\023\023\237\\\226\306"
  55      5EB02F7B 
  55      F065CEC4 
  55      647B5313 
  55      139F5C96 
  56 002a 355B1637 		.ascii	"5[\0267\227\212\011>\020ok\343\210\032G\210C\360\017"
  56      978A093E 
  56      106F6BE3 
  56      881A4788 
  56      43F00F
  57 003d 629C8C49 		.ascii	"b\234\214I\001\201\215\011*TA\020\321m\204LD3\246\033"
ARM GAS  C:\Users\IYANG~1.DES\AppData\Local\Temp\ccPqxEDZ.s 			page 4


  57      01818D09 
  57      2A544110 
  57      D16D844C 
  57      4433A61B 
  58 0051 454CC856 		.ascii	"EL\310V\377l\335\235\253\335\367\235\333\222\226%\234"
  58      FF6CDD9D 
  58      ABDDF79D 
  58      DB929625 
  58      9C
  59 0062 A4E7DEEF 		.ascii	"\244\347\336\357\337\357\367\373\276\236s\005\373\377"
  59      DFEFF7FB 
  59      BE9E7305 
  59      FBFF
  60 0070 DA8CBF98 		.ascii	"\332\214\277\230\312\330\233\370\004\203\001\257\375"
  60      CAD89BF8 
  60      048301AF 
  60      FD
  61 007d 9EB1B0C1 		.ascii	"\236\261\260\301\271\030\265\230m*ck\230],@w\335\012"
  61      B918B598 
  61      6D2A636B 
  61      985D2C40 
  61      77DD0A
  62 0090 579B57A3 		.ascii	"W\233W\243[K\276\210n\0254\327\255\345\342:\000\275"
  62      5B4BBE88 
  62      6E1534D7 
  62      ADE5E23A 
  62      00BD
  63 00a2 3060BBB9 		.ascii	"0`\273\271PTM\207\335\360\200?\344\320\327\361\344\206"
  63      50544D87 
  63      DDF0803F 
  63      E4D0D7F1 
  63      E486
  64 00b4 679E3B9C 		.ascii	"g\236;\234\275\312\320\354\257\273\332\240\221\011\012"
  64      BDCAD0EC 
  64      AFBBDAA0 
  64      91090A
  65 00c3 9953371B 		.ascii	"\231S7\033\246\212\312O\333v$Ywb\344\205\306C\315\030"
  65      A68ACA4F 
  65      DB762459 
  65      7762E485 
  65      C643CD18 
  66 00d7 E2EC3167 		.ascii	"\342\3541g\360\025\224B+\224\022\346\327PN\311}\311"
  66      F0159442 
  66      2B9412E6 
  66      D7504EC9 
  66      7DC9
  67 00e9 73CF0CF1 		.ascii	"s\317\014\361\032\320{:\262pG-;\211\205w\237vU5\332"
  67      1AD07B3A 
  67      B270472D 
  67      3B898577 
  67      9F765535 
  68 00fe CD915A3B 		.ascii	"\315\221Z;\223y\013\260\032\316\200(\004\240\2055\203"
  68      93790BB0 
  68      1ACE8028 
  68      04A08535 
  68      83
  69 010f B50BFD8A 		.ascii	"\265\013\375\212\250\220\365\335\247N\367\026IYk\311"
ARM GAS  C:\Users\IYANG~1.DES\AppData\Local\Temp\ccPqxEDZ.s 			page 5


  69      A890F5DD 
  69      A74EF716 
  69      49596BC9 
  70 011f FCF28BFA 		.ascii	"\374\362\213\372\230*e\031d&\332\007\023\012\242\017"
  70      982A6519 
  70      6426DA07 
  70      130AA20F 
  71 012f 87EF66BA 		.ascii	"\207\357f\272\376\205p\036\274\200\230\013\337\216\360"
  71      FE85701E 
  71      BC80980B 
  71      DF8EF0
  72 013e 1DF9F00F 		.ascii	"\035\371\360\017\243\351)\217\026\265m\273\004\332\240"
  72      A3E9298F 
  72      16B56DBB 
  72      04DAA0
  73 014d 0C3AA18C 		.ascii	"\014:\241\214\032A\375gA\003\306x\316\333\371|\034\301"
  73      1A41FD67 
  73      4103C678 
  73      CEDBF97C 
  73      1CC1
  74 015f 7AD20D91 		.ascii	"z\322\015\221\225\255\3429`\344\347\314\341\212\212"
  74      95ADE239 
  74      60E4E7CC 
  74      E18A8A
  75 016e 9BAAD366 		.ascii	"\233\252\323f\322\346\241\255\2306/E}\364f\321VB&c\263"
  75      D2E6A1AD 
  75      98362F45 
  75      7DF466D1 
  75      56422663 
  76 0183 084E434F 		.ascii	"\010NCO\340\304\360)nB$\236\372-\011\222\0171Q\323/"
  76      E0C4F029 
  76      6E42249E 
  76      FA2D0992 
  76      0F3151D3 
  77 0198 B33F4C18 		.ascii	"\263?L\030\363r\246\014\272P\355m\270\234L>i\254\242"
  77      F372A60C 
  77      BA50ED6D 
  77      B89C4C3E 
  77      69ACA2
  78 01ab 1C8C875B 		.ascii	"\034\214\207[\316\037\320)\256\311\026~l\033\210q\177"
  78      CE1FD029 
  78      AEC9167E 
  78      6C1B8871 
  78      7F
  79 01bc BB1D0DC7 		.ascii	"\273\035\015\307\375\016\327I,t\273=B\017\3701\243\346"
  79      FD0ED749 
  79      2C74BB3D 
  79      420FF831 
  79      A3E6
  80 01ce D6F821A0 		.ascii	"\326\370!\240\002\265wR0\370FBFf>\233k\032\262\0103"
  80      02B57752 
  80      30F84642 
  80      46663E9B 
  80      6B1AB208 
  81 01e3 C555CC6A 		.ascii	"\305U\314j\232<\330\301\253\237\3325\266\341p#\315\335"
  81      9A3CD8C1 
  81      AB9FDA35 
ARM GAS  C:\Users\IYANG~1.DES\AppData\Local\Temp\ccPqxEDZ.s 			page 6


  81      B6E17023 
  81      CDDD
  82 01f5 012D8A31 		.ascii	"\001-\2121\244\331\032\216\036\203\343p4lSV\021|\013"
  82      A4D91A8E 
  82      1E83E370 
  82      346C5356 
  82      117C0B
  83 0208 D5D04B64 		.ascii	"\325\320Kd\030{\026\373\274[\253h\303Y\306\253\034n"
  83      187B16FB 
  83      BC5BAB68 
  83      C359C6AB 
  83      1C6E
  84 021a C27798F8 		.ascii	"\302w\230\370\210g\007]s,3a\242J\014\036\024\016\367"
  84      8867075D 
  84      732C3361 
  84      A24A0C1E 
  84      140EF7
  85 022d C039A8C8 		.ascii	"\3009\250\310\311\304\360\037\267\323\217\212$y|\203"
  85      C9C4F01F 
  85      B7D38F8A 
  85      24797C83 
  86 023d C38BA10F 		.ascii	"\303\213\241\017\374(\277\037\252\251\371\272\223\257"
  86      FC28BF1F 
  86      AAA9F9BA 
  86      93AF
  87 024b 645B1F3D 		.ascii	"d[\037=>\337\255\310\326\345\201x\220\252\277o-i\375"
  87      3EDFADC8 
  87      D6E58178 
  87      90AABF6F 
  87      2D69FD
  88 025e 7CB6F50B 		.ascii	"|\266\365\013\340\307\276\334F\177o:\265\302mT/\034"
  88      E0C7BEDC 
  88      467F6F3A 
  88      B5C26D54 
  88      2F1C
  89 0270 58F59281 		.ascii	"X\365\222\201a\364\361\360\221I\035\225\240\320\217"
  89      61F4F1F0 
  89      91491D95 
  89      A0D08F
  90 027f 1CEE858B 		.ascii	"\034\356\205\213R\311@V\311\275\362\254\222\375\373"
  90      52C94056 
  90      C9BDF2AC 
  90      92FDFB
  91 028e 3A579010 		.ascii	":W\220\020\037*\266\225\202I\371\334I\265\214\037\361"
  91      1F2AB695 
  91      8249F9DC 
  91      49B58C1F 
  91      F1
  92 029f D2A490E6 		.ascii	"\322\244\220\346e\207[0\210g/N4p\011\007\203R\344\377"
  92      65875B30 
  92      88672F4E 
  92      34700907 
  92      8352E4FF 
  93 02b3 7A36D5D8 		.ascii	"z6\325\330\004Y\314\310?\275\207\345\371\366Es\240g"
  93      0459CCC8 
  93      3FBD87E5 
  93      F9F64573 
ARM GAS  C:\Users\IYANG~1.DES\AppData\Local\Temp\ccPqxEDZ.s 			page 7


  93      A067
  94 02c5 EE5DB920 		.ascii	"\356]\271 \362Q./\242\014!\012f\374Y\3233-G\242\326"
  94      F2512E2F 
  94      A20C210A 
  94      66FC59D3 
  94      332D47A2 
  95 02da A366FC26 		.ascii	"\243f\374&\014c\364\016\330C3\037\020,u\265\232\230"
  95      0C63F40E 
  95      D843331F 
  95      102C75B5 
  95      9A98
  96 02ec FEDA3772 		.ascii	"\376\3327rb\217\317\235\202Y\240\017\012\325]A\\,\330"
  96      628FCF9D 
  96      8259A00F 
  96      0AD55D41 
  96      5C2CD8
  97 02ff F3B7E626 		.ascii	"\363\267\346&{\334\374\351\316\237[|\222\007il\213\301"
  97      7BDCFCE9 
  97      CE9F5B7C 
  97      9207696C 
  97      8BC1
  98 0311 0866FF04 		.ascii	"\010f\377\004\321[\"\233&\035\264\022\\\260QK\020\247"
  98      D15B229B 
  98      261DB412 
  98      5CB0514B 
  98      10A7
  99 0323 E9C68A97 		.ascii	"\351\306\212\227\343\033]\302\347u\363\033\216:\003"
  99      E31B5DC2 
  99      E775F31B 
  99      8E3A03
 100 0332 F2942B19 		.ascii	"\362\224+\031\274mW%v\002o\320\330\232|d\337r\310cK"
 100      BC6D5725 
 100      76026FD0 
 100      D89A7C64 
 100      DF72C863 
 101 0347 902DCCCF 		.ascii	"\220-\314\317\311\236\316\312\266\350B-\374:\001\213"
 101      C99ECECA 
 101      B6E8422D 
 101      FC3A018B 
 102 0357 AD990CAE 		.ascii	"\255\231\014\256-v\242\262\275\025\371|%\313\361\215"
 102      2D76A2B2 
 102      BD15F97C 
 102      25CBF18D 
 103 0367 131F5569 		.ascii	"\023\037Ui\244\222\315\001\307\002\265\340l\340\027"
 103      A492CD01 
 103      C702B5E0 
 103      6CE017
 104 0376 00AE43A9 		.ascii	"\000\256C\251BYz\356\003`\277\233\273\375)\016l\006"
 104      42597AEE 
 104      0360BF9B 
 104      BBFD290E 
 104      6C06
 105 0388 C2F1CCFD 		.ascii	"\302\361\314\375\327]>\304\233\003<,^q`p\357K)Nw~\026"
 105      D75D3EC4 
 105      9B033C2C 
 105      5E716070 
 105      EF4B294E 
ARM GAS  C:\Users\IYANG~1.DES\AppData\Local\Temp\ccPqxEDZ.s 			page 8


 106 039f BD588937 		.ascii	"\275X\2117k\345;\301O\202\241@e\360\375\3676m\337\031"
 106      6BE53BC1 
 106      4F82A140 
 106      65F0FDF7 
 106      366DDF19 
 107 03b3 DA1ADCB2 		.ascii	"\332\032\334\262q\323\366uolY\267\353\355m\201\035\037"
 107      71D3F675 
 107      6F6C59B7 
 107      EBED6D81 
 107      1D1F
 108 03c5 AEDACA8C 		.ascii	"\256\332\312\214P\260rs`\333\316\240\371i \024\3708"
 108      50B07273 
 108      60DBCEA0 
 108      F9692014 
 108      F838
 109 03d7 58190CED 		.ascii	"X\031\014\355P\327o\330h\262\377\000\\\034\026-"
 109      50D76FD8 
 109      68B2FF00 
 109      5C1C162D 
 110              		.text
 111              		.section	.gnu.lto_CySysFlashClockConfig.18139b06,"",%progbits
 112 0000 789C7D52 		.ascii	"x\234}RMH\224a\020\236y\337\357o\177\314\010\353\340"
 112      4D489461 
 112      109E79DF 
 112      EF6F7FCC 
 112      08EBE0
 113 0013 A930B00E 		.ascii	"\2510\260\016v\210\016]\262\203P\267\022\004OB\210-"
 113      76880E5D 
 113      B28350B7 
 113      12044F42 
 113      882D
 114 0025 74100553 		.ascii	"t\020\005S\250K\276\273.\022v\2210Z\025\311\016\231"
 114      A84BBEBB 
 114      2E127691 
 114      305A15C9 
 114      0E99
 115 0037 59B99669 		.ascii	"Y\271\226i\256I-\225m\022%\026if\377\250Y\210\254\024"
 115      AE492D95 
 115      6D122516 
 115      6966FFA8 
 115      5988AC14 
 116 004b 6D1B98CD 		.ascii	"m\033\230\315|\373\203k\340\013\337\3733\363\314\363"
 116      7CFB836B 
 116      E00BDFFB 
 116      33F3CCF3 
 117 005b CCCC3712 		.ascii	"\314\3147\022\376_\245\364E$\300^:\321\002\024\315/"
 117      FE5FA5F4 
 117      4524C05E 
 117      3AD10214 
 117      CD2F
 118 006d 00BC9610 		.ascii	"\000\274\226\0202\222\015\312\251\215\025\202rK4\023"
 118      32920DCA 
 118      A98D1582 
 118      724B3413 
 119 007d 664DE89D 		.ascii	"fM\350\235\373\311lD\267\222YG#a6R~\023\221/\200P/\244"
 119      FBC96C44 
 119      B7925947 
ARM GAS  C:\Users\IYANG~1.DES\AppData\Local\Temp\ccPqxEDZ.s 			page 9


 119      23613652 
 119      7E13912F 
 120 0095 A61B26D6 		.ascii	"\246\033&\326\3437\261,0\324\373\363\271kA\304\005l"
 120      E337B12C 
 120      30D4FBF3 
 120      B96B41C4 
 120      056C
 121 00a7 077A0E9F 		.ascii	"\007z\016\237\177\0320\370\211\032?\247&\003S\216\374"
 121      7F1A30F8 
 121      891A3FA7 
 121      2603538E 
 121      FC
 122 00b8 2B4AF9A2 		.ascii	"+J\371\242/_=\311im\351$\227\200\037\002\360*\346b7"
 122      2F5F3DC9 
 122      696DE924 
 122      97801F02 
 122      F02AE662 
 123 00cd E632E735 		.ascii	"\3462\3475\314gp(:\364\327\222;\221\357+\276\305\031"
 123      CC677028 
 123      3AF4D792 
 123      3B91EF2B 
 123      BEC519
 124 00e0 3DEF3205 		.ascii	"=\3572\005~\2724p\252Uu\372\232\325\352\352A\244h\354"
 124      7EBA3470 
 124      AA5575FA 
 124      9AD5EAEA 
 124      41A468EC 
 125 00f4 419949C0 		.ascii	"A\231I\300\213b\226\375+S.\303\257\224\332\214\3271"
 125      8B6296FD 
 125      2B532EC3 
 125      AF94DA8C 
 125      D731
 126 0106 8F5588FC 		.ascii	"\217U\210\374\006\032H\007[\202[\302D\322?\336\346\333"
 126      061A4807 
 126      5B825BC2 
 126      44D23FDE 
 126      E6DB
 127 0118 1D925908 		.ascii	"\035\222Y\010l\023\020\027\322\240M3y\263xs\260\315"
 127      6C131017 
 127      D2A04D33 
 127      79B37873 
 127      B0CD
 128 012a C937176F 		.ascii	"\3117\027on~\002\314\022\035\367`\216\012\240SN\242"
 128      6E7E02CC 
 128      121DF760 
 128      8E0AA053 
 128      4EA2
 129 013c 2FFCE07B 		.ascii	"/\374\340{\024m\005b\242\014>\316\216OX\013v\211\200"
 129      146D0562 
 129      A20C3ECE 
 129      8E4F580B 
 129      768980
 130 014f 3729B7B7 		.ascii	"7)\267\267\3700\332\367\270\375\014c\310\177\256)\270"
 130      F830DAF7 
 130      B8FD0C63 
 130      C87FAE29 
 130      B8
ARM GAS  C:\Users\IYANG~1.DES\AppData\Local\Temp\ccPqxEDZ.s 			page 10


 131 0160 8DDDFA59 		.ascii	"\215\335\372Y\025Vv\203\322\021\272]Bw\327\263\266\254"
 131      15567683 
 131      D211BA5D 
 131      4277D7B3 
 131      B6AC
 132 0172 0E6CF7FA 		.ascii	"\016l\367\372\275a=.\014\354\245\"\203\\$\366a\007\022"
 132      BD613D2E 
 132      0CECA522 
 132      835C24F6 
 132      610712
 133 0185 E26B4757 		.ascii	"\342kGW\304\315\001\332\340\204\004\274\225\024\211"
 133      C4CD01DA 
 133      E08404BC 
 133      951489
 134 0194 8EA6457C 		.ascii	"\216\246E|\177\006/:lJ\177J\245\347\363\350\210\\K{"
 134      7F062F3A 
 134      6C4A7F4A 
 134      A5E7F3E8 
 134      885C4B7B 
 135 01a8 3B4DDB9F 		.ascii	";M\333\237\240m\350ki\2266\355\005\352\037\215\313\035"
 135      A06DE86B 
 135      699636ED 
 135      05EA1F8D 
 135      CB1D
 136 01ba F2CEA07A 		.ascii	"\362\316\240z\024\250bZ\356p\001\013\375jZ\032jp\262"
 136      14A8625A 
 136      EE70010B 
 136      FD6A5A1A 
 136      6A70B2
 137 01cd 29268C8C 		.ascii	")&\214\214\20413\335\001\342\245\200\206\337F\002l&"
 137      843133DD 
 137      01E2A580 
 137      86DF4602 
 137      6C26
 138 01df F0D3C1F7 		.ascii	"\360\323\301\367]\233l\035\222Q\331\200\203\204~\215"
 138      5D9B6C1D 
 138      9251D980 
 138      83847E8D 
 139 01ef FE373209 		.ascii	"\37672\011\263\015\274\346\250\347\221l\311\232I=k#"
 139      B30DBCE6 
 139      A8E7916C 
 139      C99A493D 
 139      6B23
 140 0201 BDBBEBF4 		.ascii	"\275\273\353\364\034\011|\240=~\337d=\271J\377{\310"
 140      1C097CA0 
 140      3D7EDF64 
 140      3DB94AFF 
 140      7BC8
 141 0213 E69E131A 		.ascii	"\346\236\023\032\214\025\256evn\304\034Z\307\354\"|"
 141      8C15AE65 
 141      766EC41C 
 141      5AC7EC22 
 141      7C
 142 0224 2AEDE964 		.ascii	"*\355\351d\332.\"\360.~\231\300tiN\300\341t%:4\026\254"
 142      DA2E22F0 
 142      2E7E99C0 
 142      74694EC0 
ARM GAS  C:\Users\IYANG~1.DES\AppData\Local\Temp\ccPqxEDZ.s 			page 11


 142      E174253A 
 143 023b D5736FA4 		.ascii	"\325so\244w\217\3658\312\340,a\036\005\005\350\031\303"
 143      778FF538 
 143      CAE02C61 
 143      1E0505E8 
 143      19C3
 144 024d 42D38823 		.ascii	"B\323\210#\230\2531\312L\015\243:\220\232\304\230@\370"
 144      98AB31CA 
 144      4C0DA33A 
 144      909AC498 
 144      40F8
 145 025f 80DE70FF 		.ascii	"\200\336p\377\322\256\204\036\361\315#RS\344\273\345"
 145      D2AE841E 
 145      F1CD2352 
 145      53E4BBE5 
 146 026f C69C9820 		.ascii	"\306\234\230 j\032g\344H\232\324\035\207=U\236\232\362"
 146      6A1A67E4 
 146      489AD41D 
 146      873D559E 
 146      9AF2
 147 0281 5ACFF163 		.ascii	"Z\317\361c%\325u5\025\236\262\342\222\352\242}eE\247"
 147      25D57535 
 147      159EB2E2 
 147      92EAA27D 
 147      6545A7
 148 0294 0F55969F 		.ascii	"\017U\226\237<\261\247\002\254\032Omiye\235G?r\264\330"
 148      3CB1A702 
 148      AC1A4F6D 
 148      6979659D 
 148      473F72B4 
 149 02a9 09FF0036 		.ascii	"\011\377\0006\212`+"
 149      8A602B
 150              		.text
 151              		.section	.gnu.lto_CySysFlashClockRestore.18139b06,"",%progbits
 152 0000 789C7D54 		.ascii	"x\234}T]L\034U\024\276\347\336\371c\226\335A\243} j"
 152      5D4C1C55 
 152      14BEE7DE 
 152      F96396DD 
 152      41A37D20 
 153 0015 3498D017 		.ascii	"4\230\320\027\334\027\037\372\322j\322D\337l\223&}\252"
 153      DC171FFA 
 153      D26AD244 
 153      DF6C9326 
 153      7DAA
 154 0027 319BBA89 		.ascii	"1\233\272\2111\325\232-M\360\201\364\356vc\233\252\025"
 154      31D59A2D 
 154      4DF081F4 
 154      EE76639B 
 154      AA15
 155 0039 1BDBD242 		.ascii	"\033\333\322B\033\232\012VX\240R\205B[\330\026Z\012"
 155      1B9A0A56 
 155      58A05285 
 155      425BD816 
 155      5A0A
 156 004b F8476AC1 		.ascii	"\370Gj\301\376\210\324\260H\023\242[Pq\264\013\236s"
 156      FE88D4B0 
 156      4813A25B 
ARM GAS  C:\Users\IYANG~1.DES\AppData\Local\Temp\ccPqxEDZ.s 			page 12


 156      5071B40B 
 156      9E73
 157 005d 6797EC62 		.ascii	"g\227\354b\302$sg\316\337\367}\347\314\275#\330\377"
 157      C2247367 
 157      CEDFF77D 
 157      E7CCBD23 
 157      D8FF
 158 006f AFAD7827 		.ascii	"\257\255x't\306\326\343\023,\006\274\346[\306\242\026"
 158      74C6D6E3 
 158      132C06BC 
 158      E65BC6A2 
 158      16
 159 0080 E762D061 		.ascii	"\347b\320a\322\326\20660Y,\300\364\334\032\327\033\326"
 159      D2D68636 
 159      30592CC0 
 159      F4DC1AD7 
 159      1BD6
 160 0092 A1DB483F 		.ascii	"\241\333H?\216n\035\014\317m\344\342&\000\2750`{\270"
 160      8E6E1D0C 
 160      CF6DE4E2 
 160      2600BD30 
 160      607BB8
 161 00a5 D074C384 		.ascii	"\320t\303\204=p\237?\340\320\335\366\3077\276\031\356"
 161      3D709F3F 
 161      E0D0DDF6 
 161      C737BE19 
 161      EE
 162 00b6 72F63443 		.ascii	"r\3664C\263\347\320\365Z\203L\320\310\034\037\253\035"
 162      B3E7D0F5 
 162      5A834CD0 
 162      C81C1FAB 
 162      1D
 163 00c7 2F2A6F94 		.ascii	"/*o\2242\226\236\373\363\332c\307>i\300\020g\363\234"
 163      32969EFB 
 163      F3DA63C7 
 163      3E69C010 
 163      67F39C
 164 00da C167500A 		.ascii	"\301gP\012g\240\2240?\207rJ\356N\237_\264\304\263@\357"
 164      67A09430 
 164      3F87724A 
 164      EE4E9F5F 
 164      B4C4B340 
 165 00ef 99D8EC1D 		.ascii	"\231\330\354\035\275\354\024\026NvwU\035\223\015\261"
 165      BDEC1416 
 165      4E767755 
 165      1D930DB1 
 166 00ff 1AB9B4F4 		.ascii	"\032\271\264\364\002`54\203(\004\240\013k\372jf{4Q\241"
 166      02603534 
 166      832804A0 
 166      0B6BFA6A 
 166      667B3451 
 167 0114 EA3B4E37 		.ascii	"\352;N7v\026)Y/\222\371\351\341#\011]\311\262\310L\265"
 167      76162959 
 167      2F92F9E9 
 167      E123095D 
 167      C9B2C84C 
 168 0129 F6A53444 		.ascii	"\366\2454D\037\210N^\352z\010\321<x\001\011\017\276"
ARM GAS  C:\Users\IYANG~1.DES\AppData\Local\Temp\ccPqxEDZ.s 			page 13


 168      1F884E5E 
 168      EA7A08D1 
 168      3C780109 
 168      0FBE
 169 013b 15E1DBF2 		.ascii	"\025\341\333\362\341\037\3043\343>#.\245,\201\026(\203"
 169      E11FC433 
 169      E33E232E 
 169      A52C8116 
 169      2883
 170 014d 7628A346 		.ascii	"v(\243FP\377Y0\2001\236\363\266?\232D\260sw\353b\353"
 170      50FF5930 
 170      80319EF3 
 170      B63F9A44 
 170      B07377EB 
 171 0163 47C423C0 		.ascii	"G\304#\300\310\317\231\3135\035\027\335\244\305\246"
 171      C8CF99CB 
 171      351D17DD 
 171      A4C5A6
 172 0172 C5474B31 		.ascii	"\305GK1-~\212\006\350\315\241\245\204L\306\246\020\234"
 172      2D7E8A06 
 172      E8CDA1A5 
 172      844CC6A6 
 172      109C
 173 0184 869EC289 		.ascii	"\206\236\302\211\341S\214A,9\377[\032\024\037b\242\246"
 173      E1538C41 
 173      2C39FF5B 
 173      1A141F62 
 173      A2A6
 174 0196 9FA7BE1B 		.ascii	"\237\247\276\033\265f\324L\031|\201jo\303\225\364\331"
 174      B566D44C 
 174      197C816A 
 174      6FC395F4 
 174      D9
 175 01a7 1FEAAB28 		.ascii	"\037\352\253(\007\343\321\246\013\037\230\0247T\013"
 175      07E3D1A6 
 175      0B1F9814 
 175      37540B
 176 01b6 DFB7F426 		.ascii	"\337\267\364&x\260U\306\243\311\240\313M\022\013\035"
 176      78B055C6 
 176      A3C9A0CB 
 176      4D120B1D 
 177 01c6 5E8F700E 		.ascii	"^\217p\016\202\230\361\341\307M\315jnz\347M\301\340"
 177      8298F1E1 
 177      C74DCD6A 
 177      6E7AE74D 
 177      C1E0
 178 01d8 4B05199B 		.ascii	"K\005\031\233\33071\334\357\020\346\002\3271\353\344"
 178      D83731DC 
 178      EF10E602 
 178      D731EBE4 
 179 01e8 8D836DBC 		.ascii	"\215\203m\274\372_\271_Z.\2672\334\033\320\262\030K"
 179      FA5FB95F 
 179      5A2EB732 
 179      DC1BD0B2 
 179      184B
 180 01fa 9967A2F1 		.ascii	"\231g\242\361z8\001uQIYE\360\025TC'\221al1\361Q\207"
 180      7A380175 
ARM GAS  C:\Users\IYANG~1.DES\AppData\Local\Temp\ccPqxEDZ.s 			page 14


 180      51495945 
 180      F0155443 
 180      2791616C 
 181 0212 51D182B3 		.ascii	"Q\321\202\263LV\271\334\206.L\234\343\331A\357\257_"
 181      4C56B9DC 
 181      862E4C9C 
 181      E3D941EF 
 181      AF5F
 182 0224 1AB55125 		.ascii	"\032\265Q%\006\017\012\227\373\340<T\344db\370\367\333"
 182      060F0A97 
 182      FBE03C54 
 182      E46462F8 
 182      F7DB
 183 0236 99B92245 		.ascii	"\231\271\"E\236\334\344\362b\350\206 \312\357\201jj"
 183      9EDCE4F2 
 183      62E88620 
 183      CAEF816A 
 183      6A
 184 0247 FED0A9A7 		.ascii	"\376\320\251\247\262\255\017\236\230\351\320T\353jC"
 184      B2AD0F9E 
 184      98E9D054 
 184      EB6A43
 185 0256 DC5F38F2 		.ascii	"\334_8\362\253\263\242\365\013\331\326/B\020\373\362"
 185      ABB3A2F5 
 185      0BD9D62F 
 185      4210FBF2 
 186 0266 1A9D1E3E 		.ascii	"\032\235\036>\275\306k\324,\034X\365\212\201at~\340"
 186      BDC66BD4 
 186      2C1C58F5 
 186      8A816174 
 186      7EE0
 187 0278 F80D1395 		.ascii	"\370\015\023\225\240\3207]\356\207KJIoV\311\275\362"
 187      A0D0375D 
 187      EE874B4A 
 187      496F56C9 
 187      BDF2
 188 028a AC92F70F 		.ascii	"\254\222\367\017\264\257!!\001T,\265\202I\005\274I5"
 188      B4AF2121 
 188      01542CB5 
 188      824905BC 
 188      4935
 189 029c 8D1CF7D3 		.ascii	"\215\034\367\323\244\220\346I\227;\320\207{/I4p\031"
 189      A490E649 
 189      973BD087 
 189      7B2F4934 
 189      7019
 190 02ae 078352D4 		.ascii	"\007\203R\324wM\217\325\237\204,f\354\237\316\243\352"
 190      774D8FD5 
 190      9F842C66 
 190      EC9FCEA3 
 190      EA
 191 02bf 3B05E239 		.ascii	";\005\3429\320\346{W/\212|\224+\313(\375\210\202\031"
 191      D0E67B57 
 191      2F8A7C94 
 191      2BCB28FD 
 191      888219
 192 02d2 938D97E7 		.ascii	"\223\215\227\347\035\365q\217\242f\374'\014`\364\016"
ARM GAS  C:\Users\IYANG~1.DES\AppData\Local\Temp\ccPqxEDZ.s 			page 15


 192      1DF5718F 
 192      A266FC27 
 192      0C60F40E 
 193 02e2 C8FEBB11 		.ascii	"\310\376\273\021\202\245\256\326\021\323_\007\026\207"
 193      82A5AED6 
 193      11D35F07 
 193      1687
 194 02f0 F706BC29 		.ascii	"\367\006\274)\330\005\372\240P\335U\304\305\202\275"
 194      D805FAA0 
 194      50DD55C4 
 194      C582BD
 195 02ff 7F1B5EB2 		.ascii	"\177\033^\262\317\313\277\325\376SS@\361 \215t\030\\"
 195      CFCBBFD5 
 195      FE535340 
 195      F1208D74 
 195      185C
 196 0311 C3EC9B10 		.ascii	"\303\354\233\020\377Qd\323\224\203\256\024\027l\320"
 196      FF5164D3 
 196      9483AE14 
 196      176CD0
 197 0320 11C4697B 		.ascii	"\021\304i{\261\342\325\370\006W\360\371\275\374\332"
 197      B1E2D5F8 
 197      0657F0F9 
 197      BDFCDA
 198 032f 3AB757ED 		.ascii	":\267W\355rm\011O\333u\205\235\302\0234\264!\0379\260"
 198      726D094F 
 198      DB75859D 
 198      C21334B4 
 198      211F39B0 
 199 0343 1AF2D00A 		.ascii	"\032\362\320\012d\007\363s\262oee;t\240f\177\031\205"
 199      6407F373 
 199      B26F6565 
 199      3B74A066 
 199      7F1985
 200 0356 E5D66C06 		.ascii	"\345\326l\006\303\313\235\350\354\275\212|\276\222\325"
 200      C3CB9DE8 
 200      ECBD8A7C 
 200      BE92D5
 201 0365 F846888F 		.ascii	"\370F\210\217\252\014R\311\246\201c\201^\2607\360\017"
 201      AA0C52C9 
 201      A6816381 
 201      5EB037F0 
 201      0F
 202 0376 005F43A9 		.ascii	"\000_C\251FYf\356\007 _\315\235\376\005\016l\002\242"
 202      465966EE 
 202      07205FCD 
 202      9DFE050E 
 202      6C02A2
 203 0389 C9CCDC5A 		.ascii	"\311\314\334Z\217\017\361\246\0017\213_<<\274\357\211"
 203      8F0FF1A6 
 203      01378B5F 
 203      3C3CBCEF 
 203      89
 204 039a 054E677E 		.ascii	"\005Ng~\012\275X\211'\353\231\227\303o\207#\241\312"
 204      0ABD5889 
 204      27EB9997 
 204      C36F8723 
ARM GAS  C:\Users\IYANG~1.DES\AppData\Local\Temp\ccPqxEDZ.s 			page 16


 204      A1CA
 205 03ac F0EBAF6D 		.ascii	"\360\353\257m\331\271;\262=\274m\363\226\235\033\237"
 205      D9B93BB2 
 205      3DBC6DF3 
 205      969D1B9F 
 206 03bc DFB6F1DD 		.ascii	"\337\266\361\335\227v\204v\275\361\334vfE\302\225[C"
 206      97768476 
 206      BDF1DC76 
 206      6645C295 
 206      5B43
 207 03ce 3B7687ED 		.ascii	";v\207\355wB\221\320[\341\312pd\227\376\312\246\315"
 207      774291D0 
 207      5BE1CA70 
 207      6497FECA 
 207      A6CD
 208 03e0 36FB0FC7 		.ascii	"6\373\017\307\323\027Q"
 208      D31751
 209              		.text
 210              		.section	.gnu.lto_CySysFlashWriteRow.18139b06,"",%progbits
 211 0000 789C7D56 		.ascii	"x\234}VkPU\327\025\336k\237s\356\373\301\353\362\262"
 211      6B5055D7 
 211      15DE6B9F 
 211      73EEFBC1 
 211      EBF2B2
 212 0013 6A1DC230 		.ascii	"j\035\3020\204Z\3423\216\355\330\314\330i\177t&\315"
 212      845AE233 
 212      8EEDD8CC 
 212      D8697F74 
 212      26CD
 213 0025 C4994CDB 		.ascii	"\304\231L\333\311\264a\014\231\2645\230!8m~\030\017"
 213      C9B4610C 
 213      99B43598 
 213      21386D7E 
 213      180F
 214 0037 5C6A2849 		.ascii	"\\j(Ilz\253\306\222huH,>\021b|\020\225\353\023\021%"
 214      6C7AABC6 
 214      92687548 
 214      2C3E1162 
 214      7C1095EB 
 215 004e 02024111 		.ascii	"\002\002A\021\025\0011\241-\210\023r\323\211t\255\275"
 215      150131A1 
 215      2D881372 
 215      D38974AD 
 215      BD
 216 005f CFB99C7B 		.ascii	"\317\271\234{\265\234\231\273\356~\254\365\255\265\327"
 216      B59C99BB 
 216      EE7EACF5 
 216      ADB5D7
 217 006e DAEB3B47 		.ascii	"\332\353;Ga\017?O\002c\277\3622\366;\034C&\003\376n"
 217      610F3F4F 
 217      0263BFF2 
 217      32F63B1C 
 217      432603FE 
 218 0083 2B63A50E 		.ascii	"+c\245\016\316\225\212\034\246\273\322Iz\024\2566-\246"
 218      CE958A1C 
 218      A6BBD249 
 218      7A14AE36 
ARM GAS  C:\Users\IYANG~1.DES\AppData\Local\Temp\ccPqxEDZ.s 			page 17


 218      2DA6
 219 0095 59731ACE 		.ascii	"Ys\032\316Tn\023{\232\330\323\300&Ml\334>\032\300e\307"
 219      546E137B 
 219      9AD8D3C0 
 219      264D6CDC 
 219      3E1AC065 
 220 00aa F625B86C 		.ascii	"\366%\270l\007\267\\vp'-\270\\\264\351q\202K.\273\314"
 220      07B75C76 
 220      70272DB8 
 220      5CB4E971 
 220      824B2EBB 
 221 00bf 7D37F734 		.ascii	"}7\3674\314\302\375\214\256|\334\367p\357\225T\234\371"
 221      CCC2FD8C 
 221      AE7CDCF7 
 221      70EF9554 
 221      9CF9
 222 00d1 8E3D8933 		.ascii	"\216=\2113/\370\244\222\217\373\205\313\200p\351\347"
 222      2FF8A492 
 222      8FFB85CB 
 222      8070E9E7 
 223 00e1 09C253A2 		.ascii	"\011\302S\242\360\224\000)R)\221'\011O\311\302S\022"
 223      F0940029 
 223      52299127 
 223      094FC9C2 
 223      5312
 224 00f3 24CBE564 		.ascii	"$\313\345ds?\005\002r\020\340\251\302e\232p\231\012"
 224      733F0502 
 224      7210E0A9 
 224      C2659A70 
 224      990A
 225 0105 6972390D 		.ascii	"ir9\0152\344 \335\034d\000\320\200\001[\307\025U\263"
 225      32E420DD 
 225      1C6400D0 
 225      80015BC7 
 225      1555B3
 226 0118 D91D4E97 		.ascii	"\331\035N\227\333\343\365\371\023\022\223\222S\002\251"
 226      DBE3F5F9 
 226      13129392 
 226      5302A9
 227 0127 69E919B0 		.ascii	"i\351\031\260\016\356\3621\016G\367\337\277\344\036"
 227      0EEEF231 
 227      0E47F7DF 
 227      BFE41E
 228 0136 E611CEBE 		.ascii	"\346\021\316\276\313p\332\020:\277\305FSPi\332\335\265"
 228      CB70DA10 
 228      3ABFC546 
 228      535069DA 
 228      DDB5
 229 0148 A5DB99F3 		.ascii	"\245\333\231\363\221\256\227\215\226}\362\302\3377n"
 229      91AE978D 
 229      967DF2C2 
 229      DF376E
 230 0157 C71DCEC6 		.ascii	"\307\035\316\3069\203\177B&\324`\342\321\311.\310A\325"
 230      39837F42 
 230      26D460E2 
 230      D1C92EC8 
 230      41D5
ARM GAS  C:\Users\IYANG~1.DES\AppData\Local\Temp\ccPqxEDZ.s 			page 18


 231 0169 FBA7866E 		.ascii	"\373\247\206n\200\362\030\220Y\315\325\013\273\374\331"
 231      80F21890 
 231      59CDD50B 
 231      BBFCD9
 232 0178 D56816BE 		.ascii	"\325h\026\276P\257?\245\242\021\354\006\305jG8\260\007"
 232      50AF3FA5 
 232      A211EC06 
 232      C56A4738 
 232      B007
 233 018a B251BBE7 		.ascii	"\262Q\273\347de\225\246\344\011\313\315-\245\270(,\377"
 233      646595A6 
 233      E409CBCD 
 233      2DA5B828 
 233      2CFF
 234 019c 2D2D15D8 		.ascii	"--\025\330\033o\2510\330\007\331\244~t\364\310\003\207"
 234      1B6FA930 
 234      D807D9A4 
 234      7E74F4C8 
 234      0387
 235 01ae B240989E 		.ascii	"\262@\230\236\253\322\267\371\263v\350\345\301\233\273"
 235      ABD2B7F9 
 235      B376E8E5 
 235      C19BBB
 236 01bd AB5B3CFA 		.ascii	"\253[<\372y\275\374\346\344\344\354\010Wa\177,\202|"
 236      79BDFCE6 
 236      E4E4EC08 
 236      57617F2C 
 236      827C
 237 01cf D0A4EF4C 		.ascii	"\320\244\357L\377S\312\017\205\365\341\216K\357h\302"
 237      FF53CA0F 
 237      85F5E18E 
 237      4BEF68C2 
 238 01df 7AFB9E6A 		.ascii	"z\373\236j\233\305\366\300\377\261m|w\244AU~&\214\373"
 238      9BC5F6C0 
 238      FFB16D7C 
 238      77A44155 
 238      7E268CFB 
 239 01f3 EFDC29F3 		.ascii	"\357\334)\363\210$\206\0354?\330\370\361=1\207\012\261"
 239      8824861D 
 239      343FD8F8 
 239      F13D3187 
 239      0AB1
 240 0205 BF695397 		.ascii	"\277iS\227\023\261\317\224n\337\233\025\205\326\240"
 240      13B1CF94 
 240      6EDF9B15 
 240      85D6A0
 241 0214 5E427F8C 		.ascii	"^B\177\214\320\007\255\320\335w\277\271\252)\317\011"
 241      D007ADD0 
 241      DD77BFB9 
 241      AA29CF09 
 242 0224 D3C1E683 		.ascii	"\323\301\346\203\033\025\264\325\313n\356\0136\271\365"
 242      1B15B4D5 
 242      CB6EEE0B 
 242      36B9F5
 243 0233 2DA6B90D 		.ascii	"-\246\271\015\016I\363\357eB\256\305x\254\374\333n\267"
 243      0E49F3EF 
 243      6542AEC5 
ARM GAS  C:\Users\IYANG~1.DES\AppData\Local\Temp\ccPqxEDZ.s 			page 19


 243      78ACFCDB 
 243      6EB7
 244 0245 AD5CD7F5 		.ascii	"\255\\\327\365\004\250\205,\250\303\337'\370;\014YT"
 244      04A8852C 
 244      A8C3DF27 
 244      F83B0C59 
 244      54
 245 0256 38ACD711 		.ascii	"8\254\327\021\260a\363\250\361\273\265Ia}rr\374\312"
 245      B061F3A8 
 245      F1BBB549 
 245      617D7272 
 245      FCCA
 246 0268 5F87F394 		.ascii	"_\207\363\224\037\001\246\331\316Q8\024\022*\011\215"
 246      1F01A6D9 
 246      CE513814 
 246      122A098D 
 247 0278 8417A86A 		.ascii	"\204\027\250j>\240\012$\221R\200D*\2114\022\351\244"
 247      3EA00A24 
 247      91528044 
 247      2A893412 
 247      E9A4
 248 028a 944123AA 		.ascii	"\224A#\252\224}\006Mg\322h6#'sh\230E\"\233D\016\211"
 248      947D064D 
 248      67D26836 
 248      23277368 
 248      9845229B 
 249 02a1 5C128F93 		.ascii	"\\\022\217\223\310#1\227\304\023$\346\221\230Ob\001"
 249      C8233197 
 249      C41324E6 
 249      91984F62 
 249      01
 250 02b2 C12CA4D1 		.ascii	"\301,\244\321\"\022\213i\272\204FKI,\023\267\211\015"
 250      22128B69 
 250      BA84464B 
 250      492C13B7 
 250      890D
 251 02c4 E08FAEFD 		.ascii	"\340\217\256\375 N\360_\271\012\247F\017t\266i\342\300"
 251      204EF05F 
 251      B90AA746 
 251      0F74B669 
 251      E2C0
 252 02d6 78584CCE 		.ascii	"xXL\316\215\201\317\332\034T\030\025\363p\024sN:\227"
 252      8D81CFDA 
 252      1C541815 
 252      F3701473 
 252      4E3A97
 253 02e9 3B41A850 		.ascii	";A\250P.h\255\023\312/\005\2537\244\323\342\004\367"
 253      2E68AD13 
 253      CA2F05AB 
 253      37A4D3E2 
 253      04F7
 254 02fb A2D99B77 		.ascii	"\242\331\233w\256\327\211z\362I;\203\006\243V\203x\021"
 254      AED7897A 
 254      F2493B83 
 254      06A35683 
 254      7811
 255 030d 2B721454 		.ascii	"+r\024T\357\011\016q\251\355\263:Q\320\311\247Qe\225"
ARM GAS  C:\Users\IYANG~1.DES\AppData\Local\Temp\ccPqxEDZ.s 			page 20


 255      EF090E71 
 255      A9EDB33A 
 255      51D0C9A7 
 255      516595
 256 0320 55CF507A 		.ascii	"U\317Pza}\370\275&\017)S\261\266ul\330\317\327\376W"
 256      617DF8BD 
 256      260F2953 
 256      B1B6756C 
 256      D8CFD7FE 
 257 0335 AFD01D11 		.ascii	"\257\320\035\021\356\034\347X\0278\006ki\253\252{\360"
 257      EE1CE758 
 257      1738066B 
 257      69ABAA7B 
 257      F0
 258 0346 BE42282E 		.ascii	"\276B(.N\323w:\257\334\326\362\367\351\345\245\341_"
 258      4ED3773A 
 258      AFDCD6F2 
 258      F7E9E5A5 
 258      E15F
 259 0358 D2B5A4A2 		.ascii	"\322\265\244\242\035\227\330\270\373\366Wc\037\331\021"
 259      1D97D8B8 
 259      FBF65763 
 259      1FD911
 260 0367 47D7C3CB 		.ascii	"G\327\303\313\"\334\015' _\270\200FX+\203\332t\354\203"
 260      22DC0D27 
 260      205FB880 
 260      46582B83 
 260      DA74EC83 
 261 037b 9053C0E9 		.ascii	"\220S\300\351\300 \014\231\021\356\241\223\266\006'"
 261      C0200C99 
 261      11EEA193 
 261      B60627
 262 038a FEF2A532 		.ascii	"\376\362\2452u\324P\317\221\343v\322\263Ob\233\2354"
 262      75D450CF 
 262      91E376D2 
 262      B34F629B 
 262      9D34
 263 039c A21FE01A 		.ascii	"\242\037\340\032k\367*\203\334F\207\300\244\205\306"
 263      6BF72A83 
 263      DC4687C0 
 263      A485C6
 264 03ab BE2DB593 		.ascii	"\276-\265\223\025\232\224\356\374\364ma\342\022\261"
 264      159A94EE 
 264      FCF46D61 
 264      E212B1
 265 03ba 9C1BA92F 		.ascii	"\234\033\251/\263\313H\363\314HOI\0348\015\371\023x"
 265      B3CB48F3 
 265      CC484F49 
 265      1C380DF9 
 265      1378
 266 03cc 48CAFAE8 		.ascii	"H\312\372\350d\024\240i\353p\275*\000\304\225\277\327"
 266      6414A069 
 266      EB70BD2A 
 266      00C495BF 
 266      D7
 267 03dd BCF9A42D 		.ascii	"\274\371\244-\016\340\214\001p\026\362Q\343\037w\037"
 267      0EE08C01 
ARM GAS  C:\Users\IYANG~1.DES\AppData\Local\Temp\ccPqxEDZ.s 			page 21


 267      7016F251 
 267      E31F771F 
 268 03ed 0C0B0375 		.ascii	"\014\013\003u\035\203s\242\214e}o\266\326T\201<HRl\030"
 268      1D8373A2 
 268      8C657D6F 
 268      B6D65481 
 268      3C48526C 
 269 0402 AFC78581 		.ascii	"\257\307\205\201\273\235\275\273\302 \023\366kJX\023"
 269      BB9DBDBB 
 269      C22013F6 
 269      6B4A5813 
 270 0412 E423FA79 		.ascii	"\344#\372yL=\035\356V\266\021\331[\225\265\251\344\307"
 270      4C3D1DEE 
 270      56B611D9 
 270      5B95B5A9 
 270      E4C7
 271 0424 5BA18775 		.ascii	"[\241\207u\301\210\321\342z\005N\315\316\226*\357Vx"
 271      C188D1E2 
 271      7A054ECD 
 271      CE962AEF 
 271      5678
 272 0436 BF14DD64 		.ascii	"\277\024\335dD\270\017\232\261\231/\220\033h\201\255"
 272      44B80F9A 
 272      B1992F90 
 272      1B6881AD 
 273 0446 80A188C3 		.ascii	"\200\241\210\303\0368[\3574 \313\2769\364\236(\204\267"
 273      1E385BEF 
 273      3420CBBE 
 273      39F49E28 
 273      84B7
 274 0458 DCC4DC7D 		.ascii	"\334\304\334}\353\3541\305\012r1\012r\011AP\243|\333"
 274      EBEC31C5 
 274      0A72310A 
 274      72094150 
 274      A37CDB
 275 046b D60E4D54 		.ascii	"\326\016MT\205\032\333\301\240\025w\257\201~z\263K\324"
 275      851ADBC1 
 275      A01577AF 
 275      817E7AB3 
 275      4BD4
 276 047d 199F4272 		.ascii	"\031\237Br\364U\345P\315/d\016\0021\321All\237!,\352"
 276      F455E550 
 276      CD2F640E 
 276      0231D141 
 276      6C6C9F21 
 277 0493 07BFB649 		.ascii	"\007\277\266I\345T\251\337S{}\247O\270A/\272\237\301"
 277      E554A9DF 
 277      537B7DA7 
 277      4FB8412F 
 277      BA9FC1
 278 04a6 65D90E9F 		.ascii	"e\331\016\237\033\027$U,\3403\004\024\325\331\017n\177"
 278      1B172455 
 278      2CE03304 
 278      14D5D90F 
 278      6E7F
 279 04b8 47681FAA 		.ascii	"Gh\037\252\015bLm\220\251\3666\356\365\023\215o\374"
 279      0D624C6D 
ARM GAS  C:\Users\IYANG~1.DES\AppData\Local\Temp\ccPqxEDZ.s 			page 22


 279      90A9F636 
 279      EEF5138D 
 279      6FFC
 280 04ca 4FA96A6C 		.ascii	"O\251jl\3415j\207L\215Z\300\316\332\355Jl\230i\323\205"
 280      E1356A87 
 280      4C8D5AC0 
 280      CEDAED4A 
 280      6C9869D3 
 281 04df D9111766 		.ascii	"\331\021\027f\272\324\337\362~\344\204\270p\216I\274"
 281      BAD4DFF2 
 281      7EE484B8 
 281      708E49BC 
 282 04ef CB574448 		.ascii	"\313WDH\203\334\301\332\223\005\270K*gL\207\334\031"
 282      83DCC1DA 
 282      9305B84B 
 282      2A674C87 
 282      DC19
 283 0501 879C89FA 		.ascii	"\207\234\211\372\346i{\214\323f\322\335\036\351o\203"
 283      E6697B8C 
 283      D366D2DD 
 283      1EE96F83 
 284 0511 68465C0C 		.ascii	"hF\\\014\272\242\375\354d!\237\325\337\214\351\374u"
 284      BAA2FDEC 
 284      64219FD5 
 284      DF8CE9FC 
 284      75
 285 0522 933FB272 		.ascii	"\223?\262rQ\224\230?\005\015\2341\027\312\201j\237C"
 285      5194983F 
 285      050D9C31 
 285      17CA816A 
 285      9F43
 286 0534 A683B4DC 		.ascii	"\246\203\264\334f\233\355\010\230\3545\201\254F+uM\355"
 286      669BED08 
 286      98EC3581 
 286      AC462B75 
 286      4DED
 287 0546 9A743893 		.ascii	"\232t8\223\226Ey\202E\306\212\265\033\355\210\327c\226"
 287      96457982 
 287      45C68AB5 
 287      1BED88D7 
 287      6396
 288 0558 8B63F2EC 		.ascii	"\213c\362\354\027\333\016\340\215T\\\344\301\303\332"
 288      17DB0EE0 
 288      8D545CE4 
 288      C1C3DA
 289 0567 5CC846C1 		.ascii	"\\\310F\301\360\361\312Y\322xv<\037\371\307\211U\341"
 289      F0F1CA59 
 289      D278763C 
 289      1FF9C789 
 289      55E1
 290 0579 2A364584 		.ascii	"*6E\204'\260.\020\034G,\216\312\214l\333*gK\3339\361"
 290      27B02E10 
 290      1C472C8E 
 290      CA8C6CDB 
 290      2A674BDB 
 291 058f B689E382 		.ascii	"\266\211\343\202\375\256\011[\321\003\241\035\263L\226"
 291      FDAE095B 
ARM GAS  C:\Users\IYANG~1.DES\AppData\Local\Temp\ccPqxEDZ.s 			page 23


 291      D103A11D 
 291      B34C96
 292 059e 457DB132 		.ascii	"E}\2612\326y\317.\355\305\213H\036\345\015s\245'\232"
 292      D679CF2E 
 292      EDC58B48 
 292      1EE50D73 
 292      A5279A
 293 05b1 692F7B4B 		.ascii	"i/{K\021\261^3c\315~\204?\242\364^\253\277\231S\251"
 293      11B15E33 
 293      63CD7E84 
 293      3FA2F45E 
 293      ABBF9953 
 294 05c6 CB16383E 		.ascii	"\313\0268>:\263p\334\0332\034\347L\345\360\015se\312"
 294      3AB370DC 
 294      1B321CE7 
 294      4CE5F00D 
 294      7365CA
 295 05d9 B19FD568 		.ascii	"\261\237\325h\3625\322\0272\373\327\302+?\210\247\267"
 295      F235D217 
 295      32FBD7C2 
 295      2B3F88A7 
 295      B7
 296 05ea EB829D26 		.ascii	"\353\202\235&.^\356\360\313\313_\207\227\277O\276f\032"
 296      2E5EEEF0 
 296      CBCB5F87 
 296      97BF4FBE 
 296      661A
 297 05fc C6FACA9C 		.ascii	"\306\372\312\234\322En\014\214#\036\345\006r\021^\315"
 297      D2456E0C 
 297      8C231EE5 
 297      0672115E 
 297      CD
 298 060d DEF5BDAA 		.ascii	"\336\365\275\252\324\177\\RsK\377\327\343\342-\224\234"
 298      D47F5C52 
 298      734BFFD7 
 298      E3E22D94 
 298      9C
 299 061e C0E0A640 		.ascii	"\300\340\246@\015\336_\177\306P\312C\\T\025G\207\207"
 299      0DDE5F7F 
 299      C650CA43 
 299      5C541547 
 299      8787
 300 0630 627DC8C9 		.ascii	"b}\310\311-b\342<I\234\017\3664\030\30497\366\200\177"
 300      2D62E23C 
 300      499C0FF6 
 300      3418C439 
 300      37F6807F 
 301 0644 56A665CE 		.ascii	"V\246e\316\"b\316~\301\234\267M\346\234k\270\266\022"
 301      2262CE7E 
 301      C19CB74D 
 301      E69C6BB8 
 301      B612
 302 0656 636E6C2F 		.ascii	"cnl/\014\010b\234+\211q\240\336mXXY07\226\005\007%\013"
 302      0C08629C 
 302      2B8971A0 
 302      DE6D5858 
 302      59303796 
ARM GAS  C:\Users\IYANG~1.DES\AppData\Local\Temp\ccPqxEDZ.s 			page 24


 303 066e 9E3E31DC 		.ascii	"\236>1\334,\233\361O\222\005\207\014\026\014\271\343"
 303      2C9BF14F 
 303      9205870C 
 303      160CB9E3 
 304 067e 58B06BEF 		.ascii	"X\260k\357\037\345\201\236\230\256)\357\304\221\300"
 304      1FE5819E 
 304      98AE29EF 
 304      C491C0
 305 068d 3CD48FA7 		.ascii	"<\324\217\247\274y&\345\341uH`\215`\355\370\371\323"
 305      BC7926E5 
 305      E1754860 
 305      8D60EDF8 
 305      F9D3
 306 069f 810FC781 		.ascii	"\201\017\307\201/@\375(W%\262/\024+\322\302\351\220"
 306      2F40FD28 
 306      5725B22F 
 306      142BD2C2 
 306      E990
 307 06b1 EEC6212D 		.ascii	"\356\306!-B\375x\256Zd!\246$v\213[\301\027O\007\376"
 307      42FD78AE 
 307      5A6421A6 
 307      24768B5B 
 307      C1174F07 
 308 06c6 85494CC9 		.ascii	"\205IL\311\024\0222\205\206\006I\202\211\022i9\305h"
 308      14123285 
 308      86064982 
 308      89126939 
 308      C568
 309 06d8 81987652 		.ascii	"\201\230vR\211RT<S\302y\373\004\327\222I1\020m\256\213"
 309      8952543C 
 309      53C279FB 
 309      04D79249 
 309      31106DAE 
 310 06ed E346732D 		.ascii	"\343Fs-y\250\253\227X\232+\225\375M\025]}xC\266\334"
 310      79A8AB97 
 310      589A2B95 
 310      FD4D155D 
 310      7D7843B6 
 311 0702 5DFA88AE 		.ascii	"]\372\210\256\306\367\006|i\355\352\307\246Xd\251\300"
 311      C6F7067C 
 311      69EDEAC7 
 311      A65864A9 
 311      C0
 312 0713 49934C56 		.ascii	"I\223LV\036>\336\352{\344wU\3128~\2660\030A\024$\256"
 312      1E3EDEEA 
 312      7BE47755 
 312      CA387EB6 
 312      30184114 
 313 0729 08464A66 		.ascii	"\010FJf\351ld\276\350\355\321\316j\353'\342\207m7\332"
 313      E96C64BE 
 313      E8EDD1CE 
 313      6AEB27E2 
 313      876D37DA 
 314 073d C47797AA 		.ascii	"\304w\227\2522\370\227Q\257\014\363\2032T\327\275B\006"
 314      32F89751 
 314      AF0CF383 
 314      3254D7BD 
ARM GAS  C:\Users\IYANG~1.DES\AppData\Local\Temp\ccPqxEDZ.s 			page 25


 314      4206
 315 074f BB4C3047 		.ascii	"\273L0G\037\030\235\263L|%\001\351!i\316\371iaQaqAI"
 315      1F189DB3 
 315      4C7C2501 
 315      E92169CE 
 315      F9696151 
 316 0767 E18BBF59 		.ascii	"\341\213\277Y\261zM\361\312\302\347\237Y\261z\371\302"
 316      B17A4DF1 
 316      CAC2E79F 
 316      59B17AF9 
 316      C2
 317 0778 E797BFFE 		.ascii	"\347\227\277\376\223U\005\257\275\374\375\225\314V\274"
 317      935505AF 
 317      BDFCFD95 
 317      CC56BC
 318 0787 FA0F4FAF 		.ascii	"\372\017O\257y\305\216\177?.()p\024\027\226<W\260jM"
 318      79C58E7F 
 318      3F2E2829 
 318      70141796 
 318      3C57B06A 
 319 079c A16FE5AA 		.ascii	"\241o\345\252\337//z\351Yc\352z\265\240\270\340\225"
 319      DF2F2F7A 
 319      E95963EA 
 319      7AB5A0B8 
 319      E095
 320 07ae C292C2E2 		.ascii	"\302\222\302\342\327|\277-\302\277\3425\257\226\254"
 320      D77CBF2D 
 320      C2BFE235 
 320      AF96AC
 321 07bd 284164ED 		.ascii	"(Ad\355\351\237?\343b\377\003\241\034\324\277"
 321      E99F3FE3 
 321      62FF03A1 
 321      1CD4BF
 322              		.text
 323              		.section	.gnu.lto_CySysFlashSetWaitCycles.18139b06,"",%progbits
 324 0000 789C9553 		.ascii	"x\234\225S[HTQ\024\335\373\334\327<|e\0209\220\031&"
 324      5B485451 
 324      14DDFBDC 
 324      D73C7C65 
 324      10399019 
 325 0015 6658F611 		.ascii	"fX\366\021\364\025\004B\375\006\376J!6Q\020Z\223~\364"
 325      F4150442 
 325      FD06FE4A 
 325      21365110 
 325      5A937EF4 
 326 0029 21DE71A6 		.ascii	"!\336q\246\322^\210D\210b Q\226\226\232\217\314Gz\363"
 326      D25E8844 
 326      88622051 
 326      96969A8F 
 326      CC477AF3 
 327 003d C74A544C 		.ascii	"\307JTLS\022QI\207\364#JF\324Ic\332\347\\\035\263\207"
 327      53125149 
 327      87F4234A 
 327      46D44963 
 327      DAE75C1D 
 328 0053 D0C0EC73 		.ascii	"\320\300\354s\356:k\257\275\327\346\034\011\376\374"
 328      EE3A6BAF 
ARM GAS  C:\Users\IYANG~1.DES\AppData\Local\Temp\ccPqxEDZ.s 			page 26


 328      BDD7E61C 
 328      09FEFC
 329 0062 65D3DF23 		.ascii	"e\323\337#\003\034\241\025m\200\254\270\037\300maL\352"
 329      031CA115 
 329      6D80ACB8 
 329      1FC06D61 
 329      4CEA
 330 0074 8805DD26 		.ascii	"\210\005\335&\017\247\200\036&\241\325\204e\246\010"
 330      0FA7801E 
 330      26A1D584 
 330      65A608
 331 0083 5815B0B2 		.ascii	"X\025\260\262\016\253L\033!\300fi\243\3030m\035\266"
 331      0EAB4C1B 
 331      21C06669 
 331      A3C3306D 
 331      1DB6
 332 0095 AC6FAC88 		.ascii	"\254o\254\210|\003\010\371L\222\025U#$\037\347\330<"
 332      7C0308F9 
 332      4C921555 
 332      23241FE7 
 332      D83C
 333 00a7 C362A3A6 		.ascii	"\303b\243\246\324\236\370P\327\365o\357?\306\\\335\031"
 333      D49EF850 
 333      D7F56FEF 
 333      3FC65CDD 
 333      19
 334 00b8 60007E66 		.ascii	"`\000~f\366\206U\230H\224\241\226\353G\245\275\010\264"
 334      F6865598 
 334      4894A196 
 334      EB47A5BD 
 334      08B4
 335 00ca 6DAD5DE8 		.ascii	"m\255]\350\263\317\262\000\3038\376\331V\362\246T\345"
 335      B3CFB200 
 335      C338FED9 
 335      56F2A654 
 335      E5
 336 00db 9F4CE69F 		.ascii	"\237L\346\237_V\246\337\251\011\017t\275\300\350k\320"
 336      5F56A6DF 
 336      A9090F74 
 336      BDC0E86B 
 336      D0
 337 00ec 8FC90126 		.ascii	"\217\311\001&\341c\224H\016\237\240\003\253\321\001"
 337      E1639448 
 337      0E9FA003 
 337      ABD101
 338 00fb 0401D660 		.ascii	"\004\001\326`\002\247\217\316}\037S\244$!\354{\333t"
 338      02A78FCE 
 338      7D1F53A4 
 338      2421EC7B 
 338      DB74
 339 010d 578AAFA4 		.ascii	"W\212\257\244\324\251\201\333=v\275T\367N\005\203\273"
 339      D4A981DB 
 339      3D76BD54 
 339      F74E0583 
 339      BB
 340 011e 034CC6A7 		.ascii	"\003L\306\247\246B\262\003\223\034kC\243\204y\357\217"
 340      A642B203 
ARM GAS  C:\Users\IYANG~1.DES\AppData\Local\Temp\ccPqxEDZ.s 			page 27


 340      931C6B43 
 340      A38479EF 
 340      8F
 341 012f 51BBEAA5 		.ascii	"Q\273\352\245\276\243\360\031\306\233=c-\252H\013G\352"
 341      BEA3F019 
 341      C69B3D63 
 341      2DAA480B 
 341      47EA
 342 0141 A20D3D18 		.ascii	"\242\015=\030l\374|\257p\277\266]\006\016)\310K\253"
 342      6CFC7CAF 
 342      70BFB65D 
 342      060E29C8 
 342      4BAB
 343 0153 D484A2F1 		.ascii	"\324\204\242\361`\345\301\306\203\235\207p\036\"x\210"
 343      60E5C1C6 
 343      839D8770 
 343      1E227888 
 344 0163 E4016086 		.ascii	"\344\001`\2064\371\334|\214\361U\032G\217\321X\276\203"
 344      34F9DC7C 
 344      8CF1551A 
 344      478FD158 
 344      BE83
 345 0175 57596232 		.ascii	"WYb25q\177\350N-\313[\321\013uK\200\251~\306k\327a\036"
 345      35717FE8 
 345      4E2DCB5B 
 345      D10B754B 
 345      80A97EC6 
 346 018d 656B3082 		.ascii	"ek0\202L\264Cu\211\014\037\320\333\347\231n\331g&+\224"
 346      4CB44375 
 346      890C1FD0 
 346      DBE7996E 
 346      D967262B 
 347 01a2 DCFB69D9 		.ascii	"\334\373i\331\037\306\207\247D\001\326\243\351\315G"
 347      1FC687A7 
 347      4401D6A3 
 347      E9CD47
 348 01b1 F3E98895 		.ascii	"\363\351\210\225\306\260{\361\306\310\32724\351*\321"
 348      C6B07BF1 
 348      C6C8D732 
 348      34E92AD1 
 349 01c1 CB3B7DC3 		.ascii	"\313;}\303VN\267\324\353\206.\346=930h\021\220\030\311"
 349      564EB7D4 
 349      EB862EE6 
 349      3D393330 
 349      68119018 
 350 01d6 D8CDD7F5 		.ascii	"\330\315\327\365\254\002\313\335^\0140+>\247\2217pY"
 350      AC02CBDD 
 350      5E0C302B 
 350      3EA79137 
 350      7059
 351 01e8 6CC40A84 		.ascii	"l\304\012\2041\364,_[\2151\0055S\323\327_P\024.ZX\015"
 351      31F42C5F 
 351      5B8D3105 
 351      3553D3D7 
 351      5F50142E 
 352 01ff 06839180 		.ascii	"\006\203\221\200M\304\247\332%\225\011\234\267I\323"
 352      4DC4A7DA 
ARM GAS  C:\Users\IYANG~1.DES\AppData\Local\Temp\ccPqxEDZ.s 			page 28


 352      2595099C 
 352      B749D3
 353 020e 6D246D56 		.ascii	"m$mVm&UR\022M\3130\234\"\011\213\376_-\206\256\213\022"
 353      6D265552 
 353      124DCB30 
 353      9C22098B 
 353      FE5F2D86 
 354 0225 07F82264 		.ascii	"\007\370\"dQ\201\336h\323\342b\310\242u+\003-!\003\013"
 354      5181DE68 
 354      D3E262C8 
 354      A2752B03 
 354      2D21030B 
 355 0239 AA49B751 		.ascii	"\252I\267Q\306Z\267\236\205\220-;\035\220NO\305l\203"
 355      C65AB79E 
 355      85902D3B 
 355      1D904E4F 
 355      C56C83
 356 024c 2CCA22E0 		.ascii	",\312\"\340\313\377\260\324*,\331E\223*\024\3552-Uu"
 356      CBFFB0D4 
 356      2A2CD945 
 356      932A14ED 
 356      322D5575 
 357 0260 246F589A 		.ascii	"$oX\232\\\232\354\326\204\366!\300\266\220%\015&\267"
 357      5C9AECD6 
 357      84F621C0 
 357      B690250D 
 357      26B7
 358 0272 99962696 		.ascii	"\231\226&\226\033\326,\205oe\251=diX3\351\021\224\261"
 358      1BD62C85 
 358      6F65A93D 
 358      64695833 
 358      E91194B1 
 359 0286 6169DC61 		.ascii	"ai\334a\242\221t@:e\243\276\005I\224\245\247\320\261"
 359      A2917440 
 359      3A65A3BE 
 359      054994A5 
 359      A7D0B1
 360 0299 6E29F12F 		.ascii	"n)\361/\226\016l\256\363JX\212\024MZ\240\332N\227\330"
 360      960E6CAE 
 360      F34A588A 
 360      144D5AA0 
 360      DA4E97D8 
 361 02ad 6B344F44 		.ascii	"k4OD\360L\370\375\012\333\374t\323\001;\351\012\323"
 361      F04CF8FD 
 361      0ADBFC74 
 361      D3013BE9 
 361      0AD3
 362 02bf 91FB51FB 		.ascii	"\221\373Q\373-a\225\006\202]\350\010\2600!c]{\014^\243"
 362      2D619506 
 362      825DE808 
 362      B0302163 
 362      5D7B0C5E 
 363 02d4 6B82FD4B 		.ascii	"k\202\375KG\242\034\203t\350\356\363\274\011t\033\203"
 363      47A21C83 
 363      74E8EEF3 
 363      BC09741B 
 363      83
ARM GAS  C:\Users\IYANG~1.DES\AppData\Local\Temp\ccPqxEDZ.s 			page 29


 364 02e5 A70419F8 		.ascii	"\247\004\031\370\303B\256A\265\366\234pf9]\0319\316"
 364      C342AE41 
 364      B5F69C70 
 364      66395D19 
 364      39CE
 365 02f7 33A7D3B2 		.ascii	"3\247\323\262s]\231\316\364\223i\331\251\207\323S\257"
 365      735D99CE 
 365      F49369D9 
 365      A987D353 
 365      AF
 366 0308 1CBF9071 		.ascii	"\034\277\220q\371\334\301L\220\317\272\234\227\"\316"
 366      F9DCC14C 
 366      90CFBA9C 
 366      9722CE
 367 0317 67E5385D 		.ascii	"g\3458]\256\334\2139i9D\376\011\316m\256\036"
 367      AEDC8B39 
 367      693944FE 
 367      09CE6DAE 
 367      1E
 368              		.text
 369              		.section	.gnu.lto_CySysSFlashWriteUserRow.18139b06,"",%progbits
 370 0000 789C7D56 		.ascii	"x\234}VklT\307\025\2363\367\356\373\345\007\273koJ("
 370      6B6C54C7 
 370      159E33F7 
 370      EEFBE507 
 370      BB6B6F4A 
 371 0015 22960509 		.ascii	"\"\226\005\011l\002E\216\344\252\212D\325\376\250\224"
 371      6C02458E 
 371      E4AA8A44 
 371      D5FEA894 
 372 0025 46258ADA 		.ascii	"F%\212\332*j\345\220\215\322\226\230\3101\252\362\203"
 372      2A6AE590 
 372      8DD29698 
 372      C831AAF2 
 372      83
 373 0036 70ED5D25 		.ascii	"p\355]%.$-rylML@i\010$\005\363\212y9x!<Cm\342\202\275"
 373      2E242D72 
 373      796C4D4C 
 373      40690824 
 373      05F38A79 
 374 0053 3118DBD8 		.ascii	"1\030\333\330\030Lc\032;&&\013\015\333sf\356]\337\335"
 374      184C631A 
 374      3B26260B 
 374      0DDB7366 
 374      EE5DDFDD 
 375 0067 505F69E7 		.ascii	"P_i\347\316\343|\3379sf\316\267Wa\337}\036\007\306n"
 375      CEE37CDF 
 375      397366CE 
 375      B75761DF 
 375      7D1E07C6 
 376 007c BA19FB3D 		.ascii	"\272\031\373=\366!\304\200\257ig\254\306\316\271RW\312"
 376      F621C480 
 376      AF6967AC 
 376      C6CEB952 
 376      57CA
 377 008e 346711B5 		.ascii	"4g\021\265n\205\253\373\2161\032\366\270p\250r\253X"
 377      6E85ABFB 
ARM GAS  C:\Users\IYANG~1.DES\AppData\Local\Temp\ccPqxEDZ.s 			page 30


 377      8E311AF6 
 377      B870A872 
 377      AB58
 378 00a0 B488450B 		.ascii	"\264\210E\013X%\306\312m\243~\234\266o~\034\247m\340"
 378      5825C6CA 
 378      6DA37E9C 
 378      B66F7E1C 
 378      A76DE0
 379 00b3 92D376EE 		.ascii	"\222\323v\356\240\011\247\223\026\335\016p\312i\247"
 379      A009A793 
 379      16DD0E70 
 379      CA69A7
 380 00c2 B1EEE2EE 		.ascii	"\261\356\342\356C\017\342zqW\030\327\335\334s!\200#"
 380      430FE27A 
 380      715718D7 
 380      DDDC7321 
 380      8023
 381 00d4 6F4B198E 		.ascii	"oK\031\216<\340\225F^\356\023.\375\302\245\217\347\011"
 381      3CE09546 
 381      5EEE132E 
 381      FDC2A58F 
 381      E709
 382 00e6 4FF9C253 		.ascii	"O\371\302S\036L\223F\371\274@x*\024\236\012\240PN\027"
 382      1E4C9346 
 382      F9BC4078 
 382      2A149E0A 
 382      A0504E17 
 383 00fa 1AEBD3C0 		.ascii	"\032\353\323\300/;~\036\020.\203\302e\000\202r:\010"
 383      2F3B7E1E 
 383      102E83C2 
 383      65008272 
 383      3A08
 384 010c C5B25364 		.ascii	"\305\262Sdt\212\001\250\303\200\255\344\212j\261\332"
 384      748A01A8 
 384      C380ADE4 
 384      8A6AB1DA 
 385 011c EC0EA7CB 		.ascii	"\354\016\247\313\355\361\372\362\362\013\012\247\371"
 385      EDF1FAF2 
 385      F20B0AA7 
 385      F9
 386 0129 03C1A262 		.ascii	"\003\301\242bX\0117\370\030\207\203;o\265\271\206y\212"
 386      580937F8 
 386      1887833B 
 386      6FB5B986 
 386      798A
 387 013b B3EF331C 		.ascii	"\263\3573\034\036\252?\035\267\322\020T\032&\273\342"
 387      1EAA3F1D 
 387      B7D21054 
 387      1A26BBE2 
 388 014b 4947E97B 		.ascii	"IG\351{\232V;Z\177\267\342ok7\343\012g\343\234\301\373"
 388      9A563B5A 
 388      7FB7E26F 
 388      6B37E30A 
 388      67E39CC1 
 389 0160 10826D98 		.ascii	"\020\202m\230yt\262\035J\321\364\326\261k}\240<\004"
 389      7974B21D 
 389      4AD1F4D6 
ARM GAS  C:\Users\IYANG~1.DES\AppData\Local\Temp\ccPqxEDZ.s 			page 31


 389      B16B7DA0 
 389      3C04
 390 0172 04DB76F1 		.ascii	"\004\333v\361\323\355\276\222w\021\2268\267G{BE\020"
 390      D3EDBE92 
 390      77119638 
 390      B7477B42 
 390      4510
 391 0184 7C008A19 		.ascii	"|\000\212\031G<\360!\224\240u\367\321U\015\026\345a"
 391      473CF021 
 391      94A075F7 
 391      D1550D16 
 391      E561
 392 0196 815C7FB6 		.ascii	"\201\\\177\266\006'\005\362\256D*\360\217\\\244\302"
 392      062705F2 
 392      AE442AF0 
 392      8F5CA4C2 
 393 01a6 60079490 		.ascii	"`\007\224\220\371\301\321\003\367\354\312\002\001=\331"
 393      F9C1D103 
 393      F7ECCA02 
 393      013DD9
 394 01b5 A06DF2CD 		.ascii	"\240m\362\315\332\242\305\242\375\227\232\316\272\265"
 394      DAA2C5A2 
 394      FD979ACE 
 394      BAB5
 395 01c3 D35AAC3F 		.ascii	"\323Z\254?\235\236\221\342*\354\314f\220\017Bz\217\017"
 395      9D9E91E2 
 395      2AECCC66 
 395      900F427A 
 395      8F0F
 396 01d5 3CA1FC50 		.ascii	"<\241\374P\240\367\237o{\313\"\320\233{\232\254&\354"
 396      A0F79F6F 
 396      7BCB22D0 
 396      9B7B9AAC 
 396      26EC
 397 01e7 AEFF836D 		.ascii	"\256\377\203m]3rHU~&\300\003\327\257\327\272E\022\023"
 397      5D337248 
 397      557E26C0 
 397      03D7AFD7 
 397      BA451213 
 398 01fb 761AEF6B 		.ascii	"v\032\357k\335\373\225\030C\235X_\267\256\313\201\334"
 398      DDFB9518 
 398      439D585F 
 398      B7AECB81 
 398      DC
 399 020c C76B365F 		.ascii	"\307k6_\016g\250-\260GR\357E\352}f\352\344\215;\027"
 399      0E67A82D 
 399      B04752EF 
 399      45EA7D66 
 399      EAE48D3B 
 400 0221 2DCA3302 		.ascii	"-\3123\002:tf\337Z\005\261Zm\177\357_N\271\264\270\001"
 400      3A7466DF 
 400      5A05B15A 
 400      6D7FEF5F 
 400      4EB9B4B8 
 401 0236 B742B384 		.ascii	"\267B\263\204?\022\202\331&\360X\354\333\244\313\032"
 401      3F1282D9 
 401      26F058EC 
ARM GAS  C:\Users\IYANG~1.DES\AppData\Local\Temp\ccPqxEDZ.s 			page 32


 401      DBA4CB1A 
 402 0246 D3342D0F 		.ascii	"\3234-\017\232`\026\354\306\337G\370\333\017\263\350"
 402      9A6016EC 
 402      C6DF47F8 
 402      DB0FB3E8 
 403 0256 E0F0BC0E 		.ascii	"\340\360\274\016\200\025\253G\315]m*Hh\351\364\336\233"
 403      8015AB47 
 403      CD5D6D2A 
 403      4868E9F4 
 403      DE9B
 404 0268 1BEACA8A 		.ascii	"\033\352\312\2120')n\343\330\330\025jTj,\324x\200N\315"
 404      3027296E 
 404      E3D8D815 
 404      6A546A2C 
 404      D478804E 
 405 027d 0B740205 		.ascii	"\013t\002\005d\344\247&@M\220\232\"2*\246\036\235\224"
 405      64E4A726 
 405      404D909A 
 405      22322AA6 
 405      1E9D94
 406 0290 ED011A4E 		.ascii	"\355\001\032N\247\336\014FNfRw\0265%\324\224R3\207\232"
 406      A7DE0C46 
 406      4E665277 
 406      163525D4 
 406      94523387 
 407 02a5 B9D4CCA3 		.ascii	"\271\324\314\243&L\315\243\204{\214z\363\251Y@\303\205"
 407      264CCDA3 
 407      847B8C7A 
 407      F3A95940 
 407      C385
 408 02b7 D42BA3A6 		.ascii	"\324+\243\246\\\\\037v\025\177t\317\207p\200o\345\""
 408      5C5C1F76 
 408      157F74CF 
 408      8770806F 
 408      E522
 409 02c9 1C1B1DBD 		.ascii	"\034\033\035\275\231\264\210\035\342\3560\033}W\317"
 409      99B4881D 
 409      E2EE301B 
 409      7D57CF
 410 02d8 75D8E924 		.ascii	"u\330\351$T\334\370AL2\331\254\371\217M\230\320\346"
 410      54DCF841 
 410      4C32D9AC 
 410      F98F4D98 
 410      D0E6
 411 02ea 69AE1362 		.ascii	"i\256\023bm\321\367[\213h\3626\367 \254\351\235\257"
 411      6DD1F75B 
 411      8B68F236 
 411      F720ACE9 
 411      9DAF
 412 02fc EF01C1E8 		.ascii	"\357\001\301\350\256\035\322\317f\010\007u\245\012Z"
 412      AE1DD2CF 
 412      66080775 
 412      A50A5A
 413 030b 7747EF70 		.ascii	"wG\357pi\3545\373P\320\307\341\214\261\312\032f\222"
 413      69EC35FB 
 413      50D0C7E1 
 413      8CB1CA1A 
ARM GAS  C:\Users\IYANG~1.DES\AppData\Local\Temp\ccPqxEDZ.s 			page 33


 413      6692
 414 031d 717BF470 		.ascii	"q{\364p\353\027\312$w}\367\201\217mdnK#y\213n\177\225"
 414      EB17CA24 
 414      777DF781 
 414      8F6D646E 
 414      4B23798B 
 415 0334 5B585B9E 		.ascii	"[X[\2362\304\255\004\303(\353wO\274!\302DH\315\326\303"
 415      32C4AD04 
 415      C328EB77 
 415      4FBC21C2 
 415      4448CDD6 
 416 0349 6F0A8843 		.ascii	"o\012\210C\034\361\311\221=\265\266\360\016-V\223x\230"
 416      1CF1C991 
 416      3DB5B6F0 
 416      0E2D5693 
 416      7898
 417 035b AE281DE0 		.ascii	"\256(\035\340\307\222\007\216@\3706\007\261\315]\377"
 417      C792078E 
 417      40F83607 
 417      B1CD5DFF 
 418 036b CD109C6A 		.ascii	"\315\020\234j\034\336\243\012\002q\251\276:\263\376"
 418      1CDEA30A 
 418      0271A9BE 
 418      3AB3FE
 419 037a A83587A0 		.ascii	"\2505\207\240U'H@\030-\336\271qoX\000\324\225\014\216"
 419      55274840 
 419      182DDEB9 
 419      716F5800 
 419      D4950C8E 
 420 038e E2520FBC 		.ascii	"\342R\017\274\236\370\272\317M|\304\260\351\374\237"
 420      9EF8BACF 
 420      4D7CC4B0 
 420      E9FC9F
 421 039d 77F21577 		.ascii	"w\362\025w\265:\315\236\342\316q\364\310\340\030\254"
 421      B53ACD9E 
 421      E2CE71F4 
 421      C8E018AC 
 422 03ad A0A586E4 		.ascii	"\240\245\206\344\320-E\370\3424|\253\363\302\240E\372"
 422      D02D45F8 
 422      E2347CAB 
 422      F3C2A045 
 422      FA
 423 03be FA95E1EB 		.ascii	"\372\225\341\353\023\351\013W\337\234\030{\317\206<"
 423      13E90B57 
 423      DF9C187B 
 423      CF863C
 424 03cd 9A96F851 		.ascii	"\232\226\370Q\212\273\3408\204\205\0138\001+dv\327\265"
 424      8ABBE038 
 424      84850B38 
 424      012B6476 
 424      D7B5
 425 03df BC5DEF10 		.ascii	"\274]\357\020t\03208\011\241\024w\343\366j{\337\350"
 425      741A3038 
 425      09A11477 
 425      E3F66A7B 
 425      DFE8
 426 03f1 4D37804C 		.ascii	"M7\200LkAvR^\315I\012\256v\366lO\200\364\363\033\362"
ARM GAS  C:\Users\IYANG~1.DES\AppData\Local\Temp\ccPqxEDZ.s 			page 34


 426      6B417652 
 426      5ECD490A 
 426      AE76F66C 
 426      4F80F4F3 
 427 0407 730AC218 		.ascii	"s\012\302\030\361i\214\230R}\245D\317\323\352UM\001"
 427      F1698C98 
 427      527DA544 
 427      CFD3EA55 
 427      4D01
 428 0419 F2E5A9D3 		.ascii	"\362\345\251\323\022\232P\300\314\341z\004\317\266\255"
 428      129A50C0 
 428      CCE17A04 
 428      CFB6AD
 429 0428 671B3C8D 		.ascii	"g\033<\215\260\261\006\335\024\247\270\027\316`\361"
 429      B0B106DD 
 429      14A7B817 
 429      CE60F1
 430 0437 7E4A6EE0 		.ascii	"~Jn\340,4\002\206\"S\177o\277C\247\254\275\323\274A"
 430      2C340286 
 430      22537F6F 
 430      BF43A7AC 
 430      BDD3BC41 
 431 044b C4EF8919 		.ascii	"\304\357\211\031\234\037\\9\321\242\230I\376\231!iC"
 431      9C1F5C39 
 431      D1A29849 
 431      FE992169 
 431      43
 432 045c 12B4886D 		.ascii	"\022\264\210mj<o\021w\204\012\331\316\240\035W/\201"
 432      6A3C6F11 
 432      77840AD9 
 432      CEA01D57 
 432      2F81
 433 046e F6C99D19 		.ascii	"\366\311\235\031\"=\370D\310\321\304\252\211\364/e\016"
 433      223DF844 
 433      C8D1C4AA 
 433      89F42F65 
 433      0E
 434 047f FC59D141 		.ascii	"\374Y\321Avl\347\220\026\355\243\337X\245q@\332w7]\336"
 434      766CE790 
 434      16EDA3DF 
 434      58A57140 
 434      DA77375D 
 435 0494 EA156ED0 		.ascii	"\352\025n\320\213\346c\360\231\254\206\317\365\353\032"
 435      8BE663F0 
 435      99AC86CF 
 435      F5EB1A
 436 04a3 1013F85C 		.ascii	"\020\023\370\\\003\212\352\304\333\203\337\023\326\315"
 436      038AEAC4 
 436      DB83DF13 
 436      D6CD
 437 04b1 4D518CA9 		.ascii	"MQ\214\251\003B\352\310\267;|$\333k\277\254Q\365%\274"
 437      0342EAC8 
 437      B73B7C24 
 437      DB6BBFAC 
 437      51F525BC 
 438 04c5 D4FF8290 		.ascii	"\324\377\202\220\205J\300\306\266:\224\3540\203S\205"
 438      854AC0C6 
ARM GAS  C:\Users\IYANG~1.DES\AppData\Local\Temp\ccPqxEDZ.s 			page 35


 438      B63A94EC 
 438      30835385 
 439 04d5 793E27CC 		.ascii	"y>'\314\"i\037\337\230:\"\256\277=\215W\340\202\010"
 439      22691FDF 
 439      983A22AE 
 439      BF3D8D57 
 439      E08208
 440 04e8 6988DBD9 		.ascii	"i\210\333\331\255\240 wJ\343\342\251\230;s\230Cho\354"
 440      ADA02077 
 440      4AE3E2A9 
 440      983B7398 
 440      43686FEC 
 441 04fc B65BDF6D 		.ascii	"\266[\337m\210*md\240\0032\031q2\350\312\324\263\203"
 441      882A6D64 
 441      A0033219 
 441      7132E8CA 
 441      D4B383
 442 050f 6DCC37FB 		.ascii	"m\3147\373{`*\177I\362G('E\211\371S\020\340\310\272"
 442      7B602A7F 
 442      49F24728 
 442      274589F9 
 442      5310E0C8 
 443 0524 507634FB 		.ascii	"Pv4\373\034Bv\262r\031E\277\305o\210\327m\0245!\003"
 443      1C4276B2 
 443      721945BF 
 443      C56F88D7 
 443      6D143521 
 444 0539 C7E3BF96 		.ascii	"\307\343\277\226\016\247\323\2648\236h\245>c\326\006"
 444      0EA7D3B4 
 444      389E68A5 
 444      3E63D606 
 445 0549 1BF2751B 		.ascii	"\033\362u\033\307\3051y\266\221\364n\274\221\212\223"
 445      C7C53179 
 445      B691F46E 
 445      BC918A93 
 446 0559 3CB859CA 		.ascii	"<\270Y\312\255\364@4\261{\240_\337\357\214\334:\366"
 446      ADF44034 
 446      B17BA05F 
 446      DFEF8CDC 
 446      3AF6
 447 056b 8D93AAC2 		.ascii	"\215\223\252\302E\254\212\024\317c] D\216d\033\215\031"
 447      45AC8A14 
 447      CF635D20 
 447      448E641B 
 447      8D19
 448 057d 813F1A18 		.ascii	"\201?\032\030\325\3013s\301\371\343B\377.\011\260\250"
 448      D5C13373 
 448      C1F9E342 
 448      FF2E09B0 
 448      A8
 449 058e 82FA2D0F 		.ascii	"\202\372-\017\0322\213\366bf\254=\376\232\304\213\277"
 449      1A328BF6 
 449      6266AC3D 
 449      FE9AC48B 
 449      BF
 450 059f 1EB999CC 		.ascii	"\036\271\231\314Lw&\327\036\326\257\210h[3\321\226\334"
 450      4C7726D7 
ARM GAS  C:\Users\IYANG~1.DES\AppData\Local\Temp\ccPqxEDZ.s 			page 36


 450      1ED6AF88 
 450      685B33D1 
 450      96DC
 451 05b1 C721897A 		.ascii	"\307!\211z\217\331\341\364\311\354\225\010\"/m[x\356"
 451      8FD9E1F4 
 451      C9EC9508 
 451      222F6D5B 
 451      78EE
 452 05c3 8C5749A2 		.ascii	"\214WI\242\322\3114\276f\314Lz\366\261\026\253\370#"
 452      D2C934BE 
 452      66CC4C7A 
 452      F6B116AB 
 452      F823
 453 05d5 D9958CD7 		.ascii	"\331\225\214\327\203^\303&m)\317\025\334\313B/\2174"
 453      835EC326 
 453      6D29CF15 
 453      DCCB422F 
 453      8F34
 454 05e7 7E392A4F 		.ascii	"~9*O\2419\211\005\320+\377i\326\217%\343k\014\022\223"
 454      A1398905 
 454      D02BFF69 
 454      D68F25E3 
 454      6B0C1293 
 455 05fb E896E78A 		.ascii	"\350\226\347\212n\037\251\266G\312Z\373\352w\2032\256"
 455      6E1FA9B6 
 455      47CA5AFB 
 455      EA778332 
 455      AE
 456 060c 39D9AEFF 		.ascii	"9\331\256\377\244L\251k\225\244k\375B\327\256\030\272"
 456      A44CA96B 
 456      95A46BFD 
 456      42D7AE18 
 456      BA
 457 061d 3657F76D 		.ascii	"6W\367m\226\255\331\3317u@\310\326\034)[\227\343\315"
 457      96ADD9D9 
 457      377540C8 
 457      D61C295B 
 457      97E3CD
 458 0630 46B86691 		.ascii	"F\270f\221\232\235-R\203R\244\306G\327}\343\023{\216"
 458      9A9D2D52 
 458      8352A4C6 
 458      47D77DE3 
 458      137B8E
 459 0643 4B91BAAA 		.ascii	"K\221\272\252\213\324\304s9\"umu\324'\2674w\252\242"
 459      8BD4C473 
 459      3922756D 
 459      75D427B7 
 459      3477AAA2 
 460 0657 19CA29D2 		.ascii	"\031\312)\322yh\237+I\363\014I\302\263\312c\303`\256"
 460      79689F2B 
 460      49F30C49 
 460      C2B3CA63 
 460      C360AE
 461 066a C8F054E4 		.ascii	"\310\360T\344\327r\310\037E\373\214\226\344\263\013"
 461      D772C81F 
 461      45FB8C96 
 461      E4B30B
ARM GAS  C:\Users\IYANG~1.DES\AppData\Local\Temp\ccPqxEDZ.s 			page 37


 462 0679 AA99E9B1 		.ascii	"\252\231\351\261\251\230\256\3470\315G\373\\-\231o\022"
 462      A998AEE7 
 462      30CD47FB 
 462      5C2D996F 
 462      12
 463 068a 8E02B643 		.ascii	"\216\002\266C1\223/\230\212|\330\020\216B\012\011+\331"
 463      31932F98 
 463      8A7CD810 
 463      8E420A09 
 463      2BD9
 464 069c 828002A1 		.ascii	"\202\200\002\241\024\3714=M\277\237Yw]\245\222WqOy\247"
 464      14F9343D 
 464      4DBF9F59 
 464      775DA592 
 464      57714F79 
 465 06b1 6DB7B9A5 		.ascii	"m\267\271\245\220\014\375\231\233\337g\324\334\302\357"
 465      900CFD99 
 465      9BDF67D4 
 465      DCC2EF
 466 06c0 D4DC42D3 		.ascii	"\324\334B\323\315\017\260\327-\242\346\376:\370\231"
 466      CD0FB0D7 
 466      2DA2E6FE 
 466      3AF899
 467 06cf 2A97CBEE 		.ascii	"*\227\313\356Ss(\354p\303\\s\017M\026y\231 \012J\251"
 467      537328EC 
 467      70C35C73 
 467      0F4D1679 
 467      99200A4A 
 468 06e4 8925360C 		.ascii	"\211%6\014\016\303}?\030\012\307\3613\207\301\277\221"
 468      0EC37D3F 
 468      180AC7F1 
 468      3387C1BF 
 468      91
 469 06f5 06952585 		.ascii	"\006\225%\205\233\"\\\021\233xD\226\336H\374i\3237\334"
 469      9B225C11 
 469      9B784496 
 469      DE48FC69 
 469      D337DC
 470 0708 DF3BFA3A 		.ascii	"\337;\372:\304\007\205\2522\370B?\261b\343\213\257~"
 470      C40785AA 
 470      32F8423F 
 470      B162E38B 
 470      AF7E
 471 071a EC665C4F 		.ascii	"\354f\\Ol\271\250\354^\320\277\012\312\305g\025\220"
 471      6CB9A8EC 
 471      5ED0BF0A 
 471      CAC56715 
 471      90
 472 072b 21CADACC 		.ascii	"!\312\332\314\237F*#U\025\325\221\347\177\273x\331\362"
 472      9F462A23 
 472      5515D591 
 472      E77FBB78 
 472      D9F2
 473 073d AA259167 		.ascii	"\252%\221g\237Z\274l\321\017\236]\364\352O\226V\274"
 473      9F5ABC6C 
 473      D10F9E5D 
 473      F4EA4F96 
ARM GAS  C:\Users\IYANG~1.DES\AppData\Local\Temp\ccPqxEDZ.s 			page 38


 473      56BC
 474 074f F2E2BC25 		.ascii	"\362\342\274%\314Z\265\354\217O.\177\311\206\257\037"
 474      CC5AB5EC 
 474      8F4F2E7F 
 474      C986AF1F 
 475 075f 575457D8 		.ascii	"WTW\330\253\"\325\317T,]\036\361.Y\372\207E\225/\374"
 475      AB22D5CF 
 475      542C5D1E 
 475      F12E59FA 
 475      8745952F 
 476 0774 421F3A5F 		.ascii	"B\037:_\256\250\252x)R\035\251z\305\373\273J|U-\177"
 476      AEA8AA78 
 476      29521DA9 
 476      7AC5FBBB 
 476      4A7C552D 
 477 0789 B97A7135 		.ascii	"\271zq52[\236\374\371SN\366?\234X\273\202"
 477      325B9EFC 
 477      F9534EF6 
 477      3F9C58BB 
 477      82
 478              		.text
 479              		.section	.gnu.lto_.symbol_nodes.18139b06,"",%progbits
 480 0000 789C55CC 		.ascii	"x\234U\314\275\016\001Q\020\305\361s\347\334\257\305"
 480      BD0E0151 
 480      10C5F173 
 480      E7DCAFC5 
 481 0010 2348942A 		.ascii	"#H\224*\235x\275Q(DC\364\330\310>\311f\243\020!\021"
 481      9D78BD51 
 481      284443F4 
 481      D8C83EC9 
 481      66A31021 
 482 0025 3D85A8B4 		.ascii	"=\205\250\264ZqC$\273\323L~\247\370\023@\327\340w\342"
 482      5A714324 
 482      BBD34C7E 
 482      A7F81340 
 482      D7E077E2 
 483 0039 15581C01 		.ascii	"\025X\034\001U\254\362i\007N\220\213R\202\232\306.Q"
 483      55ACF269 
 483      074E908B 
 483      52829AC6 
 483      2E51
 484 004b A53950F9 		.ascii	"\2459P\371\037\326y\204X\265\015;uu\233\266\372\237"
 484      1FD67984 
 484      58B50D3B 
 484      75759BB6 
 484      FA9F
 485 005d 311E27B6 		.ascii	"1\036'\2664\324\231i\254\263\243Y\215\264\031\212\327"
 485      34D49969 
 485      ACB3A359 
 485      8DB4198A 
 485      D7
 486 006e 80366232 		.ascii	"\2006b2?\010-P~\277\240<\367i\211\355uD\033p\337\244"
 486      3F082D50 
 486      7EBFA03C 
 486      F76989ED 
 486      75441B70 
 487 0084 D54514B7 		.ascii	"\325E\024\267\267\241k\241\330_\222\003\252\331\263"
ARM GAS  C:\Users\IYANG~1.DES\AppData\Local\Temp\ccPqxEDZ.s 			page 39


 487      B7A16BA1 
 487      D85F9203 
 487      AAD9B3
 488 0093 479F22BB 		.ascii	"G\237\"\273\247\247O\225\323C\350S\345\373Se9\244'\312"
 488      A7A74F95 
 488      D343E853 
 488      E5FB5365 
 488      39A427CA 
 489 00a7 7565E803 		.ascii	"ue\350\003&\327\207\340\003KXJG"
 489      26D787E0 
 489      034B584A 
 489      47
 490              		.text
 491              		.section	.gnu.lto_.refs.18139b06,"",%progbits
 492 0000 789C6366 		.ascii	"x\234cf``\340f\200\000F\006&FfFf \301\000\000\001\215"
 492      6060E066 
 492      80004606 
 492      26466646 
 492      6620C100 
 493 0017 0020     		.ascii	"\000 "
 494              		.text
 495              		.section	.gnu.lto_.decls.18139b06,"",%progbits
 496 0000 789CB556 		.ascii	"x\234\265V{PSW\032\277\347\336\220@\010h\261\342\216"
 496      7B505357 
 496      1ABFE7DE 
 496      90400868 
 496      B1E28E
 497 0013 BBB3463B 		.ascii	"\273\263F;\303lw\324i\265\177\264\373\317j3\265t\353"
 497      C36C77D4 
 497      69B57FB4 
 497      FBCF6A33 
 497      B574EB
 498 0026 6C1D53A7 		.ascii	"l\035S\247\323Yf\230\030\256\2301$L\022\246\233\375"
 498      D3596698 
 498      18AE9831 
 498      244C12A6 
 498      9BFD
 499 0038 EB0A5628 		.ascii	"\353\012V((F*\216/jP\024D  \212\202<\202\025\013E\020"
 499      28462A8E 
 499      2F6A5014 
 499      4420208A 
 499      823C8215 
 500 004f 58ABA250 		.ascii	"X\253\242P\301U\036\365A(\250\340\213\375\3169\367\346"
 500      C1551EF5 
 500      4128A8E0 
 500      8BFDCE39 
 500      F7E6
 501 0061 81647567 		.ascii	"\201dugv3\363\021\316w\177\347\367\375\276G\316\271"
 501      7633F311 
 501      CE777FE7 
 501      F7FDBE47 
 501      CEB9
 502 0073 1CC330A1 		.ascii	"\034\3030\241\034\303L\301'3\202a<,\303(\300\267\006"
 502      1CC34CC1 
 502      27338261 
 502      3C2CC328 
 502      C0B706
ARM GAS  C:\Users\IYANG~1.DES\AppData\Local\Temp\ccPqxEDZ.s 			page 40


 503 0086 4C0E160B 		.ascii	"L\016\026\013\026\015\346\002+\003\253\002[\310\320"
 503      160DE602 
 503      2B03AB02 
 503      5BC8D0
 504 0095 8F12AC16 		.ascii	"\217\022\254\026\254\036\314\015\326\004\326\002\326"
 504      AC1ECC0D 
 504      D604D602 
 504      D6
 505 00a2 0A7609AC 		.ascii	"\012v\011\254\013l\020l\030\014\201=c\002?x\357l\260"
 505      0B6C106C 
 505      180C813D 
 505      63023F78 
 505      EF6CB0
 506 00b5 48301558 		.ascii	"H0\025X5\306\001P\206h\214X1n\010\254'\341{L\324 \207"
 506      35C60150 
 506      86688C58 
 506      316E08AC 
 506      27E17B4C 
 507 00cc B5022C1C 		.ascii	"\265\002,\034,\014Q\356\207b\214\332 \261\260F\305\264"
 507      2C0C51EE 
 507      87628CDA 
 507      20B1B046 
 507      C5B4
 508 00de 58521C89 		.ascii	"XR\034\211\207\021\367\3263/\177\334\377\007\255\356"
 508      8711F7D6 
 508      332F7FDC 
 508      FF07ADEE 
 509 00ee 205A9BC4 		.ascii	" Z\233\304\232K\261\244\272c\3767`C\245\330\003\034"
 509      9A4BB1A4 
 509      BA63FE37 
 509      6043A5D8 
 509      031C
 510 0100 3B0AD1D8 		.ascii	";\012\321\3308F\277_.s\300:`\375&|\327\300\367_\300"
 510      3846BF5F 
 510      2E73C03A 
 510      60FD267C 
 510      D7C0F75F 
 511 0115 E6C2FF6D 		.ascii	"\346\302\377mb\014\205\030gP\354\223\177\037/\315\220"
 511      620C8518 
 511      6750EC93 
 511      7F1F2FCD 
 511      90
 512 0126 3FEE2B8C 		.ascii	"?\356+\214\007\231\013\177]\222\026)\236\024\037\307"
 512      07990B7F 
 512      5D921629 
 512      9E141FC7 
 513 0136 C23948F1 		.ascii	"\3029H\361d\"\007\2165\034$\006\236\233\271\257\231"
 513      6422078E 
 513      351C2406 
 513      9E9BB9AF 
 513      99
 514 0147 37CE390A 		.ascii	"7\3169\012\275:\357\3519\267\376\0279\217\262\250\272"
 514      BD3AEFE9 
 514      39B7FE17 
 514      398FB2A8 
 514      BA
 515 0158 6CBC2D7C 		.ascii	"l\274-|\210E\221J5^\326\3444\357\221\303R\245\224\341"
ARM GAS  C:\Users\IYANG~1.DES\AppData\Local\Temp\ccPqxEDZ.s 			page 41


 515      8845914A 
 515      355ED6E4 
 515      34EF91C3 
 515      52A594E1 
 516 016c E5E13DFD 		.ascii	"\345\341=\375\227\225\213\213\005A\310\020\334\263}"
 516      97958B8B 
 516      0541C810 
 516      DCB37D
 517 017b BB361F3D 		.ascii	"\2736\037=\273M\001\260\205J\262\274\271\177\262 \214"
 517      BB4D01B0 
 517      854AB2BC 
 517      B97FB220 
 517      8C
 518 018c 2CF1AF6C 		.ascii	",\361\257l\026v\365_\273Z\253\340@\360(\313\236=\227"
 518      1676F55F 
 518      BB5AABE0 
 518      40F028CB 
 518      9E3D97
 519 019f D3A94431 		.ascii	"\323\251D1\312\002\340\361\024\215_\377\235 \310P\031"
 519      CA02E0F1 
 519      148D5FFF 
 519      9D20C850 
 519      19
 520 01b0 52A212C4 		.ascii	"R\242\022\304\241ch1p\022&\374\311\020\204T\301\221"
 520      A1636831 
 520      701226FC 
 520      C9108454 
 520      C191
 521 01c2 26843547 		.ascii	"&\2045G2\250\020\315GEh>\203JQ\014 \010\026\025\203"
 521      32A810CD 
 521      4745683E 
 521      834A510C 
 521      20081615 
 522 01d7 F3383821 		.ascii	"\36388!HW\356\350\301P%lI{\275-\310\205\224~\352\243"
 522      4857EEE8 
 522      C150256C 
 522      497BBD2D 
 522      C885947E 
 523 01ed A9FAECD6 		.ascii	"\251\372\354\326}\215\034YNa\271\350JCzz(\267\214H\357"
 523      7D8D1C59 
 523      4E61B9E8 
 523      4A437A7A 
 523      28B78C48 
 524 0202 EEDE35C9 		.ascii	"\356\3365\311!e\014\221\345\311\021\270\3370h\361|\364"
 524      21650C91 
 524      E5C911B8 
 524      DF3068F1 
 524      7CF4
 525 0214 36709D84 		.ascii	"6p\235\204\000\321b\200r\010P\001\001p\206\3163\021"
 525      00D16280 
 525      72085001 
 525      017086CE 
 525      3311
 526 0226 08554276 		.ascii	"\010UBv'|\331E+\275\245k\337\2271\256T\212|\031\257"
 526      277CD945 
 526      2BBDA56B 
 526      DF9731AE 
ARM GAS  C:\Users\IYANG~1.DES\AppData\Local\Temp\ccPqxEDZ.s 			page 42


 526      548A7C19 
 527 023b E003FC85 		.ascii	"\340\003\374\205\262\315y\021\252L_Y\320)\340\226\322"
 527      B2CD7911 
 527      AA4C5F59 
 527      D029E096 
 527      D2
 528 024c 645015C2 		.ascii	"dP\025\302\223D\276\001\235\273?\255w\026\367>\321~"
 528      9344BE01 
 528      9DBB3FAD 
 528      7716F73E 
 528      D17E
 529 025e F95E7B9E 		.ascii	"\371^{\236J,{\337\223\212{\010\227\275\0326\237~\335"
 529      4A2C7BDF 
 529      938A7B08 
 529      97BD1A36 
 529      9F7EDD
 530 0271 B29F99B9 		.ascii	"\262\237\231\271\354\235\305W\352e\363r\201\026o\231"
 530      EC9DC557 
 530      EA65F372 
 530      81166F99 
 531 0281 4D497D8A 		.ascii	"MI}\212j\320<\370\3737\031\315\267\263<[@\334JR\331"
 531      6AD03CF8 
 531      FB3719CD 
 531      B7B33C5B 
 531      40DC4A52 
 532 0296 BAFDDF9D 		.ascii	"\272\375\337\235\216T\177'\270\313=\256\303\365\252"
 532      8E547F27 
 532      B8CB3DAE 
 532      C3F5AA
 533 02a5 632704F7 		.ascii	"c'\004\367\026\341\331\324\024Bx\023:\353\325\305\340"
 533      16E1D9D4 
 533      14427813 
 533      3AEBD5C5 
 533      E0
 534 02b6 FF893054 		.ascii	"\377\2110T\213\324\260\263t\270\350\254\214\263\023"
 534      8BD4B0B3 
 534      74B8E8AC 
 534      8CB313
 535 02c5 96DB99C7 		.ascii	"\226\333\231\307\034*\302\342\314;\225@\0318\022\026"
 535      1C2AC2E2 
 535      CC3B9540 
 535      19381216 
 536 02d5 D5F931D4 		.ascii	"\325\3711\324I\014\365\204a_\315@O\030\267\003\021\212"
 536      490CF584 
 536      615FCD40 
 536      4F18B703 
 536      118A
 537 02e7 9FEB9AEA 		.ascii	"\237\353\232\3528J\341:\035H\321\340G\321 Q\270\011"
 537      384AE13A 
 537      1D48D1E0 
 537      47D12051 
 537      B809
 538 02f9 85ABAEB0 		.ascii	"\205\253\256\260E&ci\261q\202\340{\354i|\256$><\320"
 538      45266369 
 538      B17182E0 
 538      7BEC697C 
 538      AE243E3C 
ARM GAS  C:\Users\IYANG~1.DES\AppData\Local\Temp\ccPqxEDZ.s 			page 43


 539 030e 8D883847 		.ascii	"\215\2108G\206\0165r\376\005*\013(\320\367\244@\347"
 539      860E3572 
 539      FE052A0B 
 539      28D0F7A4 
 539      40E7
 540 0320 9058A117 		.ascii	"\220X\241\027/\266}\302\035\245\302\206w7\027\316\002"
 540      2FB67DC2 
 540      1DA5C286 
 540      773717CE 
 540      02
 541 0331 61CEF2BE 		.ascii	"a\316\362\276\242\264\013*\241YpOM\375\231lA\347\375"
 541      A2B40B2A 
 541      A159704F 
 541      4DFD996C 
 541      41E7FD
 542 0344 949D9794 		.ascii	"\224\235\227\2245\321\344\366v\013\310\253\202*\033"
 542      35D1E4F6 
 542      760BC8AB 
 542      822A1B
 543 0353 EAA85DE2 		.ascii	"\352\250]\342\257aM\264\237\204\037\210\204\013\222"
 543      AF614DB4 
 543      9F841F88 
 543      840B92
 544 0362 84EE0EB7 		.ascii	"\204\356\016\267'\204\253\246\032\036\356\336\227\026"
 544      2784ABA6 
 544      1A1EEEDE 
 544      9716
 545 0370 4E35B4B5 		.ascii	"N5\264\265\361\336\342\300\026\324\354'\241Y\222\320"
 545      F1DEE2C0 
 545      16D4EC27 
 545      A15992D0 
 546 0380 4224749C 		.ascii	"B$t\234\333k\340:)\303\346\326\314\333\"C\367\216iY"
 546      DB6BE03A 
 546      29C3E6D6 
 546      CCDB2243 
 546      F78E6959 
 547 0394 FCE847F1 		.ascii	"\374\350G\361\243D\321J(\034_7:h}+\275Y<\234\352?\302"
 547      A344D14A 
 547      281C5F37 
 547      3A687D2B 
 547      BD593C9C 
 548 03ab 064DA38D 		.ascii	"\006M\243\215\244qQJ\343^iEy87LE\034v\324\336\220\203"
 548      A471514A 
 548      E35E6945 
 548      7938374C 
 548      451C76D4 
 549 03c2 883EC133 		.ascii	"\210>\3013\225>\366\301^!?Ux\001\263Fv\241v?\031\355"
 549      953EF6C1 
 549      5E213F55 
 549      7801B346 
 549      76A1763F 
 550 03d8 928C4B44 		.ascii	"\222\214KD\3067[\312\003\232W\031\320\274\216\200\351"
 550      C6375BCA 
 550      039A5719 
 550      D0BC8E80 
 550      E9
 551 03e9 BEF4CBA3 		.ascii	"\276\364\313\243\275J\356 K\"\336<~\304H\002:[\013\267"
ARM GAS  C:\Users\IYANG~1.DES\AppData\Local\Temp\ccPqxEDZ.s 			page 44


 551      BD4AEE20 
 551      4B22DE3C 
 551      7EC44802 
 551      3A5B0BB7 
 552 03fd AA69D218 		.ascii	"\252i\322\030\217:\375\202uJ\301\272H\260\272\202\357"
 552      8F3AFD82 
 552      754AC1BA 
 552      48B0BA82 
 552      EF
 553 040e 3D615C15 		.ascii	"=a\\\025%\250y\320\3638\222\253\247\213\373\207\252"
 553      25A879D0 
 553      F33892AB 
 553      A78BFB87 
 553      AA
 554 041f EFAB165C 		.ascii	"\357\253\026\\`\363\204P\022\352i\376\221\303\034\251"
 554      60F38450 
 554      12EA69FE 
 554      91C31CA9 
 555 042f CE4F6801 		.ascii	"\316Oh\001\361\354*\334q\"\002<\3502\360_\301E\300}"
 555      F1EC2ADC 
 555      7122023C 
 555      E832F05F 
 555      C145C07D 
 556 0443 78782C15 		.ascii	"xx,\025\017$\372'\004BW\351@\326\036\255\010\341\232"
 556      0F24FA27 
 556      044257E9 
 556      40D61EAD 
 556      08E19A
 557 0456 29AF74FA 		.ascii	")\257t\372\305\006\236\335\261\336\263\233\275t\274"
 557      C5069EDD 
 557      B1DEB39B 
 557      BD74BC
 558 0465 B25F251D 		.ascii	"\262_%\035z/\035\012\275p(\304\212\207\302up\336\020"
 558      7A2F1D0A 
 558      BD7028C4 
 558      8A87C275 
 558      70DE10
 559 0478 CF3DCFC1 		.ascii	"\317=\317\301\254\273\366Ta\005\352\201zu\373\216\230"
 559      ACBBF654 
 559      6105EA81 
 559      7A75FB8E 
 559      98
 560 0489 58DFD977 		.ascii	"X\337\331wo2\177DER\350\3616\270\364Pg1\365\255R\241"
 560      6F327F44 
 560      4552E8F1 
 560      36B8F450 
 560      6731F5AD 
 561 049f 9FA9DCC7 		.ascii	"\237\251\334\307?\344\225\206\020\337g*t\223\372Zo>"
 561      3FE49586 
 561      10DF672A 
 561      7493FA5A 
 561      6F3E
 562 04b1 D7F97705 		.ascii	"\327\371w\005\236\210\222\3205@\240~\322\227>i\024z"
 562      9E8892D0 
 562      3540A07E 
 562      D2973E69 
 562      147A
ARM GAS  C:\Users\IYANG~1.DES\AppData\Local\Temp\ccPqxEDZ.s 			page 45


 563 04c3 9CD96759 		.ascii	"\234\331gY\256\205#);\212{N\311\271\016\272\270\220"
 563      AE852329 
 563      3B8A7B4E 
 563      C9B90EBA 
 563      B890
 564 04d5 7AB247C9 		.ascii	"z\262G\311]\243\213\003[\372\256\222j\335&m\001\317"
 564      5DA38B03 
 564      5BFAAE92 
 564      6ADD266D 
 564      01CF
 565 04e7 E591EACC 		.ascii	"\345\221\352\3140\354\371\027\256\337\035\032\374\351"
 565      30ECF917 
 565      AEDF1D1A 
 565      FCE9
 566 04f5 8E0377F0 		.ascii	"\216\003w\360\221\323\347\360\324\215d\251\244YzW\020"
 566      91D3E7F0 
 566      D48D64A9 
 566      A4597A57 
 566      10
 567 0506 AEB33832 		.ascii	"\256\26382\272%\345\213\006\260\230[R\223\007I\223\037"
 567      BA25E58B 
 567      06B0985B 
 567      52930749 
 567      931F
 568 0518 D4974672 		.ascii	"\324\227Fr-2\022\361bZ\321q\2318\226\205/\215\345\220"
 568      2D3212F1 
 568      625AD171 
 568      99389685 
 568      2F8DE590 
 569 052c DFA40C49 		.ascii	"\337\244\014I$\303\204\344|\347\215\343rrS;\011Qn\353"
 569      24C384E4 
 569      7CE78DE3 
 569      7272533B 
 569      09516EEB 
 570 0540 995E25B9 		.ascii	"\231^%\271\252\337$\027\256c\374\216\212\353\240Az\253"
 570      AADF2417 
 570      AE63FC8E 
 570      8AEBA041 
 570      7AAB
 571 0552 2F2672A3 		.ascii	"/&r\243\364\377\256\364\221\205\334\366\020\272\247"
 571      F4FFAEF4 
 571      9185DCF6 
 571      10BAA7
 572 0561 F6404E18 		.ascii	"\366@N\030\341\020\310\272\365\326\304\230\212p\314"
 572      E110C8BA 
 572      F5D6C498 
 572      8A70CC
 573 0570 26376159 		.ascii	"&7aY\301\330,\262\344\360\262(\277\347\"\207\257*A\272"
 573      C1D82CB2 
 573      E4F0B228 
 573      BFE72287 
 573      AF2A41BA 
 574 0584 7A54FEBF 		.ascii	"zT\376\277\204_\021t\026\375a>\032\245\327\302xQIId"
 574      845F1174 
 574      16FD613E 
 574      1AA5D7C2 
 574      78514949 
ARM GAS  C:\Users\IYANG~1.DES\AppData\Local\Temp\ccPqxEDZ.s 			page 46


 575 0599 9483C005 		.ascii	"\224\203\300\005Am#g\321\010\300=\004>\206\242\244M"
 575      416D2367 
 575      D108C03D 
 575      043E86A2 
 575      A44D
 576 05ab 187D67FB 		.ascii	"\030}g\373\345\353\241\334\036\242K\366h,\273&\002-"
 576      E5EBA1DC 
 576      1EA24BF6 
 576      682CBB26 
 576      022D
 577 05bd 5A3427C6 		.ascii	"Z4'\306\211'\251\375T\355\357KR\341r\340\360.4\016E"
 577      8927A9FD 
 577      54EDEF4B 
 577      52E172E0 
 577      F02E340E 
 578 05d2 798CE678 		.ascii	"y\214\346x\271 &C\006\022\230\000\237\012?7y\363;$\334"
 578      B9202643 
 578      06129800 
 578      9F0A3F37 
 578      79F33B24 
 579 05e7 0311EA9D 		.ascii	"\003\021\352\235V\002\375#F\356\024\205\255\2601\350"
 579      5602FD23 
 579      46EE1485 
 579      ADB031E8 
 580 05f7 17787C17 		.ascii	"\027x|\027?\276/\342\241\346h\002\006\373\021Z\204\036"
 580      3FBE2FE2 
 580      A1E66802 
 580      06FB115A 
 580      841E
 581 0609 A245A4EE 		.ascii	"\242E\244\356\344\336t\245C\2510\204\221\372\"M3\333"
 581      E4DE74A5 
 581      43A93084 
 581      91FA224D 
 581      33DB
 582 061b 7E33EB1A 		.ascii	"~3\353\032Bsbf$~\002d\377\221\27071\024M\002\340\236"
 582      42736266 
 582      247E0264 
 582      FF91B837 
 582      31144D02 
 583 0631 EF9782A3 		.ascii	"\357\227\202\243H?\225\222\334\347\215\210k\246m+k:"
 583      483F9592 
 583      DCE78D88 
 583      6BA66D2B 
 583      6B3A
 584 0643 3818FA56 		.ascii	"8\030\372V\276\340v\302\275\331\265t\263\340L\025\004"
 584      BEE076C2 
 584      BDD9B574 
 584      B3E04C15 
 584      04
 585 0654 7CB81086 		.ascii	"|\270\020\206\247\224\301\033\233\301\03628\317\320"
 585      A794C11B 
 585      9BC11E32 
 585      38CFD0
 586 0663 5BB0FBC4 		.ascii	"[\260\373\304\341#U\264\351+0YA\356\356\222\020\322"
 586      E12355B4 
 586      E92B3059 
 586      41EEEE92 
ARM GAS  C:\Users\IYANG~1.DES\AppData\Local\Temp\ccPqxEDZ.s 			page 47


 586      10D2
 587 0675 E450BCCC 		.ascii	"\344P\274\314\314\252\230R\004o\362\224\324\344\267"
 587      CCAA9852 
 587      046FF294 
 587      D4E4B7
 588 0684 498FF70F 		.ascii	"I\217\367\017<o`\305\036;\245\036?\007\364\013\202\026"
 588      3C6F60C5 
 588      1E3BA51E 
 588      3F07F40B 
 588      8216
 589 0696 D828690F 		.ascii	"\330(i\017F\227?\032\355V\372\243]A\321h3\033\005;\016"
 589      46973F1A 
 589      ED56FAA3 
 589      5D41D168 
 589      331B053B 
 590 06ab 9ED8991D 		.ascii	"\236\330\231\035\316u\323\264KJ&\234\212\230\002\362"
 590      CE75D3B4 
 590      4B4A269C 
 590      8A9802F2 
 591 06bb F6B902BF 		.ascii	"\366\271\002\277\210\244\262\334\264\267\327\342;\205"
 591      88A4B2DC 
 591      B4B7D7E2 
 591      3B85
 592 06c9 61415E00 		.ascii	"aA^\000\323\330\031^\000\267\260\370\005\260\253\257"
 592      D3D8195E 
 592      00B7B0F8 
 592      05B0ABAF 
 593 06d9 A54419F0 		.ascii	"\245D\031\360N5\35173\014\372\232\245\357T\360\015\350"
 593      4E35E937 
 593      330CFA9A 
 593      A5EF54F0 
 593      0DE8
 594 06eb 9F1CBD4D 		.ascii	"\237\034\275M\212\000t\340u\276UDo%\350[U\367\363d\001"
 594      8A0074E0 
 594      75BE5544 
 594      6F25E85B 
 594      55F7F364 
 595 0700 6857003A 		.ascii	"hW\000:]D\247\023tFN\325\335\020\356.\311\227\315\232"
 595      5D44A713 
 595      74464ED5 
 595      DD10EE2E 
 595      C997CD9A 
 596 0714 181A8DA4 		.ascii	"\030\032\215\244\347\356\014\371d\316\220\017}\243\336"
 596      E7EE0CF9 
 596      64CE900F 
 596      7DA3DE
 597 0723 3310BB05 		.ascii	"3\020\273\005\012\364\015\253D\031\254w\232\\\310w\360"
 597      0AF40DAB 
 597      4419AC77 
 597      9A5CC877 
 597      F0
 598 0734 9E69A9B8 		.ascii	"\236i\251\270\305\006\210\302`\237\250,QT\026Map0UE"
 598      C50688C2 
 598      609FA82C 
 598      5154164D 
 598      61703055 
 599 0749 06C64D46 		.ascii	"\006\306MF\344dC\345\257\364\224\310\240'\312\330\256"
ARM GAS  C:\Users\IYANG~1.DES\AppData\Local\Temp\ccPqxEDZ.s 			page 48


 599      E46443E5 
 599      AFF494C8 
 599      A027CAD8 
 599      AE
 600 075a A270B25E 		.ascii	"\242p\262^HN\236*W\245<\370\004\355`\305\011\312f\311"
 600      484E9E2A 
 600      57A53CF8 
 600      04ED60C5 
 600      09CA66C9 
 601 076e 08ED6B7D 		.ascii	"\010\355k}\364D>\375\230\330\306\316G\333Y\014w\220"
 601      F4443EFD 
 601      98D8C6CE 
 601      47DB590C 
 601      7790
 602 0780 A1209BC8 		.ascii	"\241 \233\310\225\321\333\227\033\352\217v\005E\243"
 602      95D1DB97 
 602      1BEA8F76 
 602      0545A3
 603 078f 9D64848A 		.ascii	"\235d\204\212NN\214D\006\344\212\017h\237\236\0341\327"
 603      4E4E8C44 
 603      06E48A0F 
 603      689F9E1C 
 603      31D7
 604 07a1 1C92EB44 		.ascii	"\034\222\353D~\377\300\254\000tG\000\372[\021\375-A"
 604      7EFFC0AC 
 604      00744700 
 604      FA5B11FD 
 604      2D41
 605 07b3 1F1D78DC 		.ascii	"\037\035x\334\200\002\3205\001\350]\"z\027A;r\366\327"
 605      8002D035 
 605      01E85D22 
 605      7A17413B 
 605      72F6D7
 606 07c6 8705A0DB 		.ascii	"\207\005\240\333\002\320\271\"\032\177"
 606      02D0B922 
 606      1A7F
 607 07d0 CB3FFEEB 		.ascii	"\313?\376\353:\265\206\221\247\030L\266\345\313\026"
 607      3AB58691 
 607      A7184CB6 
 607      E5CB16
 608 07df 7ECC9B78 		.ascii	"~\314\233x\213\316\306'\304k\315)\026=\037\267Fk\326"
 608      8BCEC627 
 608      C46BCD29 
 608      163D1FB7 
 608      466BD6
 609 07f2 BC17A7B7 		.ascii	"\274\027\247\267\333\354\311\274u\351F&\004\003\337"
 609      DBECC9BC 
 609      75E94626 
 609      0403DF
 610 0801 0FD5DBAD 		.ascii	"\017\325\333\2556\235-\305:Wc\327\332\255\253\214:\353"
 610      369D2DC5 
 610      3A5763D7 
 610      DAADAB8C 
 610      3AEB
 611 0813 468DD1AC 		.ascii	"F\215\321\254\337\364\241N\277)%9\030\215\306N\220K"
 611      DFF4A14E 
 611      BF292539 
ARM GAS  C:\Users\IYANG~1.DES\AppData\Local\Temp\ccPqxEDZ.s 			page 49


 611      188DC64E 
 611      904B
 612 0825 F5CCF47D 		.ascii	"\365\314\364}\032\263i\203!1z\232w-o\265\231-|\224\317"
 612      1AB36983 
 612      21317A9A 
 612      772D6FB5 
 612      992D7C94 
 613 083a FD85C560 		.ascii	"\375\205\305`\343\327\232\277\232\347siy\333\027:\203"
 613      E3D79ABF 
 613      9AE77369 
 613      79DB173A 
 613      83
 614 084b 4D63D71B 		.ascii	"Mc\327\033y+\365k}\330uV\336\002x\210\367\321\337\001"
 614      792BF56B 
 614      7DD87556 
 614      DE027888 
 614      F7D1DF01 
 615 085f 042E835E 		.ascii	"\004.\203^g\324\362z\233\301lZ\020T\347j\303zH\026\364"
 615      67D4F27A 
 615      9BC16C5A 
 615      1054E76A 
 615      C37A4816 
 616 0874 7C64B2F1 		.ascii	"|d\262\361\226i\333\024&\263\311\224b4*6\230\324\326"
 616      9669DB14 
 616      26B3C994 
 616      62342A36 
 616      98D4D6
 617 0887 645E8FDE 		.ascii	"d^\217\336\225[\015\377\340\343m\366\204?\305%[\314"
 617      955B0DFF 
 617      E0E36DF6 
 617      843FC525 
 617      5BCC
 618 0899 89165D92 		.ascii	"\211\026]\222z\203\001\344@\341\222-\274\325\032\227"
 618      7A8301E4 
 618      40E1922D 
 618      BCD51A97 
 619 08a9 6C35EBD5 		.ascii	"l5\353\325z\013\257\203|\342\336[\372N\240\303\220\224"
 619      7A0BAF83 
 619      7CE2DE5B 
 619      FA4EA0C3 
 619      9094
 620 08bb 6CB6D8E2 		.ascii	"l\266\330\342\022M)q:K\022<\377`\351\3628\243a}\\\242"
 620      124D2971 
 620      3A4B123C 
 620      FF60E9F2 
 620      38A3617D 
 621 08d1 5E8F3D4B 		.ascii	"^\217=K  \277\204\327\2557\210\317\014&\2751%\201\217"
 621      2020BF84 
 621      D7AD3788 
 621      CF0C26BD 
 621      3125818F 
 622 08e5 B3DA1212 		.ascii	"\263\332\022\022\370\015\240T\236\304'\351\223\355\240"
 622      F80DA054 
 622      9EC427E9 
 622      93EDA0
 623 08f4 CCB6D162 		.ascii	"\314\266\321b\376Jf\344u\0336\375/\325\004\252\360\305"
 623      FE4A66E4 
ARM GAS  C:\Users\IYANG~1.DES\AppData\Local\Temp\ccPqxEDZ.s 			page 50


 623      751B36FD 
 623      2FD504AA 
 623      F0C5
 624 0906 B7184C89 		.ascii	"\267\030L\2118\276\306\036\2533\332\324\232/\343\265"
 624      38BEC61E 
 624      AB33DAD4 
 624      9A2FE3B5 
 625 0916 5F6AE357 		.ascii	"_j\343W\255^\251\215\215\327\254\376L\363i\374\207+"
 625      AD5EA98D 
 625      8DD7ACFE 
 625      4CF369FC 
 625      872B
 626 0928 359FAE5B 		.ascii	"5\237\256[\023\257\375|\355:\315\347\277\325\3174/Z"
 626      13AFFD7C 
 626      ED3ACDE7 
 626      BFD5CF34 
 626      2F5A
 627 093a 9B25456F 		.ascii	"\233%EoS\352\215\233>I2\257IIJ\216\320\343\207\320Y"
 627      53EA8D9B 
 627      3E4932AF 
 627      49494A8E 
 627      D0E387D0 
 628 094f 1BD05B5F 		.ascii	"\033\320[_5N\033\231\331>Z\312\370\206\321lJT\247\230"
 628      354E1B99 
 628      D93E5ACA 
 628      F886D16C 
 628      4A54A798 
 629 0963 AC864413 		.ascii	"\254\206D\023\237\240\206\231\015\261\360\211\313\227"
 629      9FA08699 
 629      0DB1F089 
 629      CB97
 630 0971 FD1B6EBF 		.ascii	"\375\033n\277a\271"
 630      61B9
 631              		.text
 632              		.section	.gnu.lto_.symtab.18139b06,"",%progbits
 633 0000 43795379 		.ascii	"CySysFlashWriteRow\000\000\000\000\000\000\000\000\000"
 633      73466C61 
 633      73685772 
 633      69746552 
 633      6F770000 
 634 001b 000000C5 		.ascii	"\000\000\000\305\000\000\000CySysFlashSetWaitCycles"
 634      00000043 
 634      79537973 
 634      466C6173 
 634      68536574 
 635 0039 00000000 		.ascii	"\000\000\000\000\000\000\000\000\000\000\000\000\311"
 635      00000000 
 635      00000000 
 635      C9
 636 0046 00000043 		.ascii	"\000\000\000CySysSFlashWriteUserRow\000\000\000\000"
 636      79537973 
 636      53466C61 
 636      73685772 
 636      69746555 
 637 0064 00000000 		.ascii	"\000\000\000\000\000\000\000\000\313\000\000\000CyE"
 637      00000000 
 637      CB000000 
ARM GAS  C:\Users\IYANG~1.DES\AppData\Local\Temp\ccPqxEDZ.s 			page 51


 637      437945
 638 0073 78697443 		.ascii	"xitCriticalSection\000\000\002\000\000\000\000\000\000"
 638      72697469 
 638      63616C53 
 638      65637469 
 638      6F6E0000 
 639 008e 000000CF 		.ascii	"\000\000\000\317\000\000\000CyEnterCriticalSection\000"
 639      00000043 
 639      79456E74 
 639      65724372 
 639      69746963 
 640 00ac 00020000 		.ascii	"\000\002\000\000\000\000\000\000\000\000\000\322\000"
 640      00000000 
 640      000000D2 
 640      00
 641 00b9 00004379 		.ascii	"\000\000CyHalt\000\000\002\000\000\000\000\000\000\000"
 641      48616C74 
 641      00000200 
 641      00000000 
 641      0000
 642 00cb 0000E900 		.ascii	"\000\000\351\000\000\000"
 642      0000
 643              		.text
 644              		.section	.gnu.lto_.opts,"",%progbits
 645 0000 272D666E 		.ascii	"'-fno-trapv' '-mcpu=cortex-m0' '-mthumb' '-g' '-O3'"
 645      6F2D7472 
 645      61707627 
 645      20272D6D 
 645      6370753D 
 646 0033 20272D66 		.ascii	" '-ffunction-sections' '-finline-functions' '-flto'"
 646      66756E63 
 646      74696F6E 
 646      2D736563 
 646      74696F6E 
 647 0066 20272D66 		.ascii	" '-ffat-lto-objects'\000"
 647      6661742D 
 647      6C746F2D 
 647      6F626A65 
 647      63747327 
 648              		.text
 649              		.cfi_sections	.debug_frame
 650              		.section	.text.CySysFlashWriteRow,"ax",%progbits
 651              		.align	2
 652              		.global	CySysFlashWriteRow
 653              		.code	16
 654              		.thumb_func
 655              		.type	CySysFlashWriteRow, %function
 656              	CySysFlashWriteRow:
 657              	.LFB2:
 658              		.file 1 "Generated_Source\\PSoC4\\CyFlash.c"
   1:Generated_Source\PSoC4/CyFlash.c **** /***************************************************************************//**
   2:Generated_Source\PSoC4/CyFlash.c **** * \file CyFlash.c
   3:Generated_Source\PSoC4/CyFlash.c **** * \version 5.40
   4:Generated_Source\PSoC4/CyFlash.c **** *
   5:Generated_Source\PSoC4/CyFlash.c **** * \brief Provides an API for the FLASH.
   6:Generated_Source\PSoC4/CyFlash.c **** *
   7:Generated_Source\PSoC4/CyFlash.c **** * \note This code is endian agnostic.
ARM GAS  C:\Users\IYANG~1.DES\AppData\Local\Temp\ccPqxEDZ.s 			page 52


   8:Generated_Source\PSoC4/CyFlash.c **** *
   9:Generated_Source\PSoC4/CyFlash.c **** * \note Documentation of the API's in this file is located in the System
  10:Generated_Source\PSoC4/CyFlash.c **** * Reference Guide provided with PSoC Creator.
  11:Generated_Source\PSoC4/CyFlash.c **** *
  12:Generated_Source\PSoC4/CyFlash.c **** ********************************************************************************
  13:Generated_Source\PSoC4/CyFlash.c **** * \copyright
  14:Generated_Source\PSoC4/CyFlash.c **** * Copyright 2010-2016, Cypress Semiconductor Corporation.  All rights reserved.
  15:Generated_Source\PSoC4/CyFlash.c **** * You may use this file only in accordance with the license, terms, conditions,
  16:Generated_Source\PSoC4/CyFlash.c **** * disclaimers, and limitations in the end user license agreement accompanying
  17:Generated_Source\PSoC4/CyFlash.c **** * the software package with which this file was provided.
  18:Generated_Source\PSoC4/CyFlash.c **** *******************************************************************************/
  19:Generated_Source\PSoC4/CyFlash.c **** 
  20:Generated_Source\PSoC4/CyFlash.c **** #include "CyFlash.h"
  21:Generated_Source\PSoC4/CyFlash.c **** 
  22:Generated_Source\PSoC4/CyFlash.c **** 
  23:Generated_Source\PSoC4/CyFlash.c **** /*******************************************************************************
  24:Generated_Source\PSoC4/CyFlash.c **** * Cypress identified a defect with the Flash write functionality of the
  25:Generated_Source\PSoC4/CyFlash.c **** * PSoC 4000, PSoC 4100, and PSoC 4200 devices. The CySysFlashWriteRow() function
  26:Generated_Source\PSoC4/CyFlash.c **** * now checks the data to be written and, if necessary, modifies it to have a
  27:Generated_Source\PSoC4/CyFlash.c **** * non-zero checksum. After writing to Flash, the modified data is replaced
  28:Generated_Source\PSoC4/CyFlash.c **** * (Flash program) with the correct (original) data.
  29:Generated_Source\PSoC4/CyFlash.c **** *******************************************************************************/
  30:Generated_Source\PSoC4/CyFlash.c **** #define CY_FLASH_CHECKSUM_WORKAROUND    (CY_PSOC4_4000 || CY_PSOC4_4100 || CY_PSOC4_4200)
  31:Generated_Source\PSoC4/CyFlash.c **** 
  32:Generated_Source\PSoC4/CyFlash.c **** #if (CY_IP_FM || ((!CY_PSOC4_4000) && CY_IP_SPCIF_SYNCHRONOUS) || (!CY_IP_FM) && CY_PSOC4_4000)
  33:Generated_Source\PSoC4/CyFlash.c ****     static CY_SYS_FLASH_CLOCK_BACKUP_STRUCT cySysFlashBackup;
  34:Generated_Source\PSoC4/CyFlash.c **** #endif /* (CY_IP_FM || ((!CY_PSOC4_4000) && CY_IP_SPCIF_SYNCHRONOUS) || (!CY_IP_FM) && CY_PSOC4_400
  35:Generated_Source\PSoC4/CyFlash.c **** 
  36:Generated_Source\PSoC4/CyFlash.c **** static cystatus CySysFlashClockBackup(void);
  37:Generated_Source\PSoC4/CyFlash.c **** static cystatus CySysFlashClockRestore(void);
  38:Generated_Source\PSoC4/CyFlash.c **** #if(CY_IP_SPCIF_SYNCHRONOUS)
  39:Generated_Source\PSoC4/CyFlash.c ****     static cystatus CySysFlashClockConfig(void);
  40:Generated_Source\PSoC4/CyFlash.c **** #endif  /* (CY_IP_SPCIF_SYNCHRONOUS) */
  41:Generated_Source\PSoC4/CyFlash.c **** 
  42:Generated_Source\PSoC4/CyFlash.c **** 
  43:Generated_Source\PSoC4/CyFlash.c **** /*******************************************************************************
  44:Generated_Source\PSoC4/CyFlash.c **** * Function Name: CySysFlashWriteRow
  45:Generated_Source\PSoC4/CyFlash.c **** ****************************************************************************//**
  46:Generated_Source\PSoC4/CyFlash.c **** *
  47:Generated_Source\PSoC4/CyFlash.c **** * Erases a row of Flash and programs it with the new data.
  48:Generated_Source\PSoC4/CyFlash.c **** *
  49:Generated_Source\PSoC4/CyFlash.c **** * The IMO must be enabled before calling this function. The operation of the
  50:Generated_Source\PSoC4/CyFlash.c **** * flash writing hardware is dependent on the IMO.
  51:Generated_Source\PSoC4/CyFlash.c **** *
  52:Generated_Source\PSoC4/CyFlash.c **** * For PSoC 4000, PSoC 4100 BLE and PSoC 4200 BLE devices (PSoC 4100 BLE and
  53:Generated_Source\PSoC4/CyFlash.c **** * PSoC 4200 BLE devices with 256K of Flash memory are not affected), this API
  54:Generated_Source\PSoC4/CyFlash.c **** * will automatically modify the clock settings for the device. Writing to
  55:Generated_Source\PSoC4/CyFlash.c **** * flash requires that changes be made to the IMO and HFCLK settings. The
  56:Generated_Source\PSoC4/CyFlash.c **** * configuration is restored before returning. This will impact the operation
  57:Generated_Source\PSoC4/CyFlash.c **** * of most of the hardware in the device.
  58:Generated_Source\PSoC4/CyFlash.c **** *
  59:Generated_Source\PSoC4/CyFlash.c **** * For PSoC 4000 devices this API will automatically modify the clock settings
  60:Generated_Source\PSoC4/CyFlash.c **** * for the device. Writing to flash requires that changes be made to the IMO
  61:Generated_Source\PSoC4/CyFlash.c **** * and HFCLK settings. The configuration is restored before returning. HFCLK
  62:Generated_Source\PSoC4/CyFlash.c **** * will have several frequency changes during the operation of this API between
  63:Generated_Source\PSoC4/CyFlash.c **** * a minimum frequency of the current IMO frequency divided by 8 and a maximum
  64:Generated_Source\PSoC4/CyFlash.c **** * frequency of 12 MHz. This will impact the operation of most of the hardware
ARM GAS  C:\Users\IYANG~1.DES\AppData\Local\Temp\ccPqxEDZ.s 			page 53


  65:Generated_Source\PSoC4/CyFlash.c **** * in the device.
  66:Generated_Source\PSoC4/CyFlash.c **** *
  67:Generated_Source\PSoC4/CyFlash.c **** * \param rowNum The flash row number. The number of the flash rows is defined by
  68:Generated_Source\PSoC4/CyFlash.c **** * the \ref CY_FLASH_NUMBER_ROWS macro for the selected device. Refer to the
  69:Generated_Source\PSoC4/CyFlash.c **** * device datasheet for the details.
  70:Generated_Source\PSoC4/CyFlash.c **** * \note The target flash array is calculated based on the specified flash row.
  71:Generated_Source\PSoC4/CyFlash.c **** *
  72:Generated_Source\PSoC4/CyFlash.c **** * \param rowData Array of bytes to write. The size of the array must be equal to
  73:Generated_Source\PSoC4/CyFlash.c **** * the flash row size. The flash row size for the selected device is defined by
  74:Generated_Source\PSoC4/CyFlash.c **** * the \ref CY_FLASH_SIZEOF_ROW macro. Refer to the device datasheet for the
  75:Generated_Source\PSoC4/CyFlash.c **** * details.
  76:Generated_Source\PSoC4/CyFlash.c **** *
  77:Generated_Source\PSoC4/CyFlash.c **** * \return \ref group_flash_status_codes
  78:Generated_Source\PSoC4/CyFlash.c **** *
  79:Generated_Source\PSoC4/CyFlash.c **** *******************************************************************************/
  80:Generated_Source\PSoC4/CyFlash.c **** uint32 CySysFlashWriteRow(uint32 rowNum, const uint8 rowData[])
  81:Generated_Source\PSoC4/CyFlash.c **** {
 659              		.loc 1 81 0
 660              		.cfi_startproc
 661              	.LVL0:
  82:Generated_Source\PSoC4/CyFlash.c ****     volatile uint32 retValue = CY_SYS_FLASH_SUCCESS;
 662              		.loc 1 82 0
 663 0000 0023     		mov	r3, #0
  81:Generated_Source\PSoC4/CyFlash.c ****     volatile uint32 retValue = CY_SYS_FLASH_SUCCESS;
 664              		.loc 1 81 0
 665 0002 30B5     		push	{r4, r5, lr}
 666              		.cfi_def_cfa_offset 12
 667              		.cfi_offset 4, -12
 668              		.cfi_offset 5, -8
 669              		.cfi_offset 14, -4
 670 0004 A9B0     		sub	sp, sp, #164
 671              		.cfi_def_cfa_offset 176
 672              		.loc 1 82 0
 673 0006 0093     		str	r3, [sp]
  83:Generated_Source\PSoC4/CyFlash.c ****     volatile uint32 clkCnfRetValue = CY_SYS_FLASH_SUCCESS;
 674              		.loc 1 83 0
 675 0008 0193     		str	r3, [sp, #4]
  84:Generated_Source\PSoC4/CyFlash.c ****     volatile uint32 parameters[(CY_FLASH_SIZEOF_ROW + CY_FLASH_SRAM_ROM_DATA) / sizeof(uint32)];
  85:Generated_Source\PSoC4/CyFlash.c ****     uint8  interruptState;
  86:Generated_Source\PSoC4/CyFlash.c **** 
  87:Generated_Source\PSoC4/CyFlash.c ****     #if (CY_FLASH_CHECKSUM_WORKAROUND)
  88:Generated_Source\PSoC4/CyFlash.c ****         uint32 needChecksumWorkaround = 0u;
  89:Generated_Source\PSoC4/CyFlash.c ****         uint32 savedIndex = 0u;
  90:Generated_Source\PSoC4/CyFlash.c ****         uint32 savedValue = 0u;
  91:Generated_Source\PSoC4/CyFlash.c ****         uint32 checksum = 0u;
  92:Generated_Source\PSoC4/CyFlash.c ****         uint32 bits = 0u;
  93:Generated_Source\PSoC4/CyFlash.c ****         uint32 i;
  94:Generated_Source\PSoC4/CyFlash.c ****     #endif  /* (CY_FLASH_CHECKSUM_WORKAROUND) */
  95:Generated_Source\PSoC4/CyFlash.c **** 
  96:Generated_Source\PSoC4/CyFlash.c ****     if ((rowNum < CY_FLASH_NUMBER_ROWS) && (rowData != 0u))
 676              		.loc 1 96 0
 677 000a 5A4B     		ldr	r3, .L35
 678 000c 9842     		cmp	r0, r3
 679 000e 5ED8     		bhi	.L2
 680              		.loc 1 96 0 is_stmt 0 discriminator 1
 681 0010 0029     		cmp	r1, #0
 682 0012 5CD0     		beq	.L2
ARM GAS  C:\Users\IYANG~1.DES\AppData\Local\Temp\ccPqxEDZ.s 			page 54


 683 0014 041C     		mov	r4, r0
  97:Generated_Source\PSoC4/CyFlash.c ****     {
  98:Generated_Source\PSoC4/CyFlash.c ****         /* Copy data to be written into internal variable */
  99:Generated_Source\PSoC4/CyFlash.c ****         (void)memcpy((void *)&parameters[2u], rowData, CY_FLASH_SIZEOF_ROW);
 684              		.loc 1 99 0 is_stmt 1
 685 0016 8022     		mov	r2, #128
 686 0018 08A8     		add	r0, sp, #32
 687              	.LVL1:
 688 001a FFF7FEFF 		bl	memcpy
 689              	.LVL2:
 100:Generated_Source\PSoC4/CyFlash.c **** 
 101:Generated_Source\PSoC4/CyFlash.c ****         #if (CY_FLASH_CHECKSUM_WORKAROUND)
 102:Generated_Source\PSoC4/CyFlash.c **** 
 103:Generated_Source\PSoC4/CyFlash.c ****             for (i = 2u; i < ((CY_FLASH_SIZEOF_ROW / sizeof(uint32)) + 2u); i++)
 104:Generated_Source\PSoC4/CyFlash.c ****             {
 105:Generated_Source\PSoC4/CyFlash.c ****                 uint32 tmp = parameters[i];
 106:Generated_Source\PSoC4/CyFlash.c ****                 if (tmp != 0u)
 107:Generated_Source\PSoC4/CyFlash.c ****                 {
 108:Generated_Source\PSoC4/CyFlash.c ****                     checksum += tmp;
 109:Generated_Source\PSoC4/CyFlash.c ****                     bits |= tmp;
 110:Generated_Source\PSoC4/CyFlash.c ****                     savedIndex = i;
 111:Generated_Source\PSoC4/CyFlash.c ****                 }
 112:Generated_Source\PSoC4/CyFlash.c ****             }
 113:Generated_Source\PSoC4/CyFlash.c **** 
 114:Generated_Source\PSoC4/CyFlash.c ****             needChecksumWorkaround = ((checksum == 0u) && (bits != 0u)) ? 1u : 0u;
 115:Generated_Source\PSoC4/CyFlash.c ****             if (needChecksumWorkaround != 0u)
 116:Generated_Source\PSoC4/CyFlash.c ****             {
 117:Generated_Source\PSoC4/CyFlash.c ****                 savedValue = parameters[savedIndex];
 118:Generated_Source\PSoC4/CyFlash.c ****                 parameters[savedIndex] = 0u;
 119:Generated_Source\PSoC4/CyFlash.c ****             }
 120:Generated_Source\PSoC4/CyFlash.c ****         #endif  /* (CY_FLASH_CHECKSUM_WORKAROUND) */
 121:Generated_Source\PSoC4/CyFlash.c **** 
 122:Generated_Source\PSoC4/CyFlash.c ****         /* Load Flash Bytes */
 123:Generated_Source\PSoC4/CyFlash.c ****         parameters[0u] = (uint32) (CY_FLASH_GET_MACRO_FROM_ROW(rowNum)        << CY_FLASH_PARAM_MAC
 124:Generated_Source\PSoC4/CyFlash.c ****                          (uint32) (CY_FLASH_PAGE_LATCH_START_ADDR             << CY_FLASH_PARAM_ADD
 125:Generated_Source\PSoC4/CyFlash.c ****                          (uint32) (CY_FLASH_KEY_TWO(CY_FLASH_API_OPCODE_LOAD) << CY_FLASH_PARAM_KEY
 690              		.loc 1 125 0
 691 001e 564B     		ldr	r3, .L35+4
 692 0020 9C42     		cmp	r4, r3
 693 0022 59D8     		bhi	.L18
 694 0024 554B     		ldr	r3, .L35+8
 695              	.L3:
 123:Generated_Source\PSoC4/CyFlash.c ****                          (uint32) (CY_FLASH_PAGE_LATCH_START_ADDR             << CY_FLASH_PARAM_ADD
 696              		.loc 1 123 0
 697 0026 0693     		str	r3, [sp, #24]
 126:Generated_Source\PSoC4/CyFlash.c ****                          CY_FLASH_KEY_ONE;
 127:Generated_Source\PSoC4/CyFlash.c ****         parameters[1u] = CY_FLASH_SIZEOF_ROW - 1u;
 698              		.loc 1 127 0
 699 0028 7F23     		mov	r3, #127
 700 002a 0793     		str	r3, [sp, #28]
 128:Generated_Source\PSoC4/CyFlash.c **** 
 129:Generated_Source\PSoC4/CyFlash.c ****         CY_FLASH_CPUSS_SYSARG_REG = (uint32) &parameters[0u];
 701              		.loc 1 129 0
 702 002c 544B     		ldr	r3, .L35+12
 703 002e 06AA     		add	r2, sp, #24
 704 0030 1A60     		str	r2, [r3]
 130:Generated_Source\PSoC4/CyFlash.c ****         CY_FLASH_CPUSS_SYSREQ_REG = CY_FLASH_CPUSS_REQ_START | CY_FLASH_API_OPCODE_LOAD;
ARM GAS  C:\Users\IYANG~1.DES\AppData\Local\Temp\ccPqxEDZ.s 			page 55


 705              		.loc 1 130 0
 706 0032 5449     		ldr	r1, .L35+16
 707 0034 544A     		ldr	r2, .L35+20
 708 0036 1160     		str	r1, [r2]
 131:Generated_Source\PSoC4/CyFlash.c ****         CY_NOP;
 709              		.loc 1 131 0
 710              	@ 131 "Generated_Source\PSoC4\CyFlash.c" 1
 711 0038 C046     		NOP
 712              	
 713              	@ 0 "" 2
 132:Generated_Source\PSoC4/CyFlash.c ****         retValue = CY_FLASH_API_RETURN;
 714              		.loc 1 132 0
 715              		.code	16
 716 003a 1A68     		ldr	r2, [r3]
 717 003c 120F     		lsr	r2, r2, #28
 718 003e 0F2A     		cmp	r2, #15
 719 0040 4CD0     		beq	.L28
 720              		.loc 1 132 0 is_stmt 0 discriminator 2
 721 0042 1A68     		ldr	r2, [r3]
 722 0044 120F     		lsr	r2, r2, #28
 723 0046 0A2A     		cmp	r2, #10
 724 0048 4CD0     		beq	.L19
 725              		.loc 1 132 0 discriminator 4
 726 004a 1B68     		ldr	r3, [r3]
 727              	.L5:
 728              		.loc 1 132 0 discriminator 8
 729 004c 0093     		str	r3, [sp]
 133:Generated_Source\PSoC4/CyFlash.c **** 
 134:Generated_Source\PSoC4/CyFlash.c ****         if(retValue == CY_SYS_FLASH_SUCCESS)
 730              		.loc 1 134 0 is_stmt 1 discriminator 8
 731 004e 009B     		ldr	r3, [sp]
 732 0050 002B     		cmp	r3, #0
 733 0052 3ED1     		bne	.L6
 135:Generated_Source\PSoC4/CyFlash.c ****         {
 136:Generated_Source\PSoC4/CyFlash.c ****             /***************************************************************
 137:Generated_Source\PSoC4/CyFlash.c ****             * Mask all the exceptions to guarantee that Flash write will
 138:Generated_Source\PSoC4/CyFlash.c ****             * occur in the atomic way. It will not affect system call
 139:Generated_Source\PSoC4/CyFlash.c ****             * execution (flash row write) since it is executed in the NMI
 140:Generated_Source\PSoC4/CyFlash.c ****             * context.
 141:Generated_Source\PSoC4/CyFlash.c ****             ***************************************************************/
 142:Generated_Source\PSoC4/CyFlash.c ****             interruptState = CyEnterCriticalSection();
 734              		.loc 1 142 0
 735 0054 FFF7FEFF 		bl	CyEnterCriticalSection
 736              	.LVL3:
 737              	.LBB8:
 738              	.LBB9:
 143:Generated_Source\PSoC4/CyFlash.c **** 
 144:Generated_Source\PSoC4/CyFlash.c ****             clkCnfRetValue = CySysFlashClockBackup();
 145:Generated_Source\PSoC4/CyFlash.c **** 
 146:Generated_Source\PSoC4/CyFlash.c ****         #if(CY_IP_SPCIF_SYNCHRONOUS)
 147:Generated_Source\PSoC4/CyFlash.c ****             if(clkCnfRetValue == CY_SYS_FLASH_SUCCESS)
 148:Generated_Source\PSoC4/CyFlash.c ****             {
 149:Generated_Source\PSoC4/CyFlash.c ****                 retValue = CySysFlashClockConfig();
 150:Generated_Source\PSoC4/CyFlash.c ****             }
 151:Generated_Source\PSoC4/CyFlash.c ****         #endif  /* (CY_IP_SPCIF_SYNCHRONOUS) */
 152:Generated_Source\PSoC4/CyFlash.c **** 
 153:Generated_Source\PSoC4/CyFlash.c ****             if(retValue == CY_SYS_FLASH_SUCCESS)
ARM GAS  C:\Users\IYANG~1.DES\AppData\Local\Temp\ccPqxEDZ.s 			page 56


 154:Generated_Source\PSoC4/CyFlash.c ****             {
 155:Generated_Source\PSoC4/CyFlash.c ****                 /* Write Row */
 156:Generated_Source\PSoC4/CyFlash.c ****                 parameters[0u]  = (uint32) (((uint32) CY_FLASH_KEY_TWO(CY_FLASH_API_OPCODE_WRITE_RO
 157:Generated_Source\PSoC4/CyFlash.c ****                 parameters[0u] |= (uint32)(rowNum << 16u);
 158:Generated_Source\PSoC4/CyFlash.c **** 
 159:Generated_Source\PSoC4/CyFlash.c ****                 CY_FLASH_CPUSS_SYSARG_REG = (uint32) &parameters[0u];
 160:Generated_Source\PSoC4/CyFlash.c ****                 CY_FLASH_CPUSS_SYSREQ_REG = CY_FLASH_CPUSS_REQ_START | CY_FLASH_API_OPCODE_WRITE_RO
 161:Generated_Source\PSoC4/CyFlash.c ****                 CY_NOP;
 162:Generated_Source\PSoC4/CyFlash.c ****                 retValue = CY_FLASH_API_RETURN;
 163:Generated_Source\PSoC4/CyFlash.c ****             }
 164:Generated_Source\PSoC4/CyFlash.c **** 
 165:Generated_Source\PSoC4/CyFlash.c ****             #if (CY_FLASH_CHECKSUM_WORKAROUND)
 166:Generated_Source\PSoC4/CyFlash.c **** 
 167:Generated_Source\PSoC4/CyFlash.c ****                 if ((retValue == CYRET_SUCCESS) && (needChecksumWorkaround != 0u))
 168:Generated_Source\PSoC4/CyFlash.c ****                 {
 169:Generated_Source\PSoC4/CyFlash.c ****                     (void)memset((void *)&parameters[2u], 0, CY_FLASH_SIZEOF_ROW);
 170:Generated_Source\PSoC4/CyFlash.c ****                     parameters[savedIndex] = savedValue;
 171:Generated_Source\PSoC4/CyFlash.c **** 
 172:Generated_Source\PSoC4/CyFlash.c ****                     /* Load Flash Bytes */
 173:Generated_Source\PSoC4/CyFlash.c ****                     parameters[0u] = (uint32) (CY_FLASH_GET_MACRO_FROM_ROW(rowNum)        << CY_FLA
 174:Generated_Source\PSoC4/CyFlash.c ****                                      (uint32) (CY_FLASH_PAGE_LATCH_START_ADDR             << CY_FLA
 175:Generated_Source\PSoC4/CyFlash.c ****                                      (uint32) (CY_FLASH_KEY_TWO(CY_FLASH_API_OPCODE_LOAD) << CY_FLA
 176:Generated_Source\PSoC4/CyFlash.c ****                                      CY_FLASH_KEY_ONE;
 177:Generated_Source\PSoC4/CyFlash.c ****                     parameters[1u] = CY_FLASH_SIZEOF_ROW - 1u;
 178:Generated_Source\PSoC4/CyFlash.c **** 
 179:Generated_Source\PSoC4/CyFlash.c ****                     CY_FLASH_CPUSS_SYSARG_REG = (uint32) &parameters[0u];
 180:Generated_Source\PSoC4/CyFlash.c ****                     CY_FLASH_CPUSS_SYSREQ_REG = CY_FLASH_CPUSS_REQ_START | CY_FLASH_API_OPCODE_LOAD
 181:Generated_Source\PSoC4/CyFlash.c ****                     CY_NOP;
 182:Generated_Source\PSoC4/CyFlash.c ****                     retValue = CY_FLASH_API_RETURN;
 183:Generated_Source\PSoC4/CyFlash.c **** 
 184:Generated_Source\PSoC4/CyFlash.c **** 
 185:Generated_Source\PSoC4/CyFlash.c ****                     if(retValue == CY_SYS_FLASH_SUCCESS)
 186:Generated_Source\PSoC4/CyFlash.c ****                     {
 187:Generated_Source\PSoC4/CyFlash.c ****                         /* Program Row */
 188:Generated_Source\PSoC4/CyFlash.c ****                         parameters[0u]  =
 189:Generated_Source\PSoC4/CyFlash.c ****                             (uint32) (((uint32) CY_FLASH_KEY_TWO(CY_FLASH_API_OPCODE_PROGRAM_ROW) <
 190:Generated_Source\PSoC4/CyFlash.c ****                                                     CY_FLASH_PARAM_KEY_TWO_OFFSET) | CY_FLASH_KEY_O
 191:Generated_Source\PSoC4/CyFlash.c ****                         parameters[0u] |= (uint32)(rowNum << 16u);
 192:Generated_Source\PSoC4/CyFlash.c **** 
 193:Generated_Source\PSoC4/CyFlash.c ****                         CY_FLASH_CPUSS_SYSARG_REG = (uint32) &parameters[0u];
 194:Generated_Source\PSoC4/CyFlash.c ****                         CY_FLASH_CPUSS_SYSREQ_REG = CY_FLASH_CPUSS_REQ_START | CY_FLASH_API_OPCODE_
 195:Generated_Source\PSoC4/CyFlash.c ****                         CY_NOP;
 196:Generated_Source\PSoC4/CyFlash.c ****                         retValue = CY_FLASH_API_RETURN;
 197:Generated_Source\PSoC4/CyFlash.c ****                     }
 198:Generated_Source\PSoC4/CyFlash.c ****                 }
 199:Generated_Source\PSoC4/CyFlash.c ****             #endif  /* (CY_FLASH_CHECKSUM_WORKAROUND) */
 200:Generated_Source\PSoC4/CyFlash.c **** 
 201:Generated_Source\PSoC4/CyFlash.c ****             if(clkCnfRetValue == CY_SYS_FLASH_SUCCESS)
 202:Generated_Source\PSoC4/CyFlash.c ****             {
 203:Generated_Source\PSoC4/CyFlash.c ****                 clkCnfRetValue = CySysFlashClockRestore();
 204:Generated_Source\PSoC4/CyFlash.c ****             }
 205:Generated_Source\PSoC4/CyFlash.c **** 
 206:Generated_Source\PSoC4/CyFlash.c ****             CyExitCriticalSection(interruptState);
 207:Generated_Source\PSoC4/CyFlash.c ****         }
 208:Generated_Source\PSoC4/CyFlash.c ****     }
 209:Generated_Source\PSoC4/CyFlash.c ****     else
 210:Generated_Source\PSoC4/CyFlash.c ****     {
ARM GAS  C:\Users\IYANG~1.DES\AppData\Local\Temp\ccPqxEDZ.s 			page 57


 211:Generated_Source\PSoC4/CyFlash.c ****         retValue = CY_SYS_FLASH_INVALID_ADDR;
 212:Generated_Source\PSoC4/CyFlash.c ****     }
 213:Generated_Source\PSoC4/CyFlash.c **** 
 214:Generated_Source\PSoC4/CyFlash.c ****     return (retValue);
 215:Generated_Source\PSoC4/CyFlash.c **** }
 216:Generated_Source\PSoC4/CyFlash.c **** 
 217:Generated_Source\PSoC4/CyFlash.c **** 
 218:Generated_Source\PSoC4/CyFlash.c **** 
 219:Generated_Source\PSoC4/CyFlash.c **** #if (CY_IP_FLASH_PARALLEL_PGM_EN && (CY_IP_FLASH_MACROS > 1u))
 220:Generated_Source\PSoC4/CyFlash.c **** /*******************************************************************************
 221:Generated_Source\PSoC4/CyFlash.c **** * Function Name: CySysFlashStartWriteRow
 222:Generated_Source\PSoC4/CyFlash.c **** ****************************************************************************//**
 223:Generated_Source\PSoC4/CyFlash.c **** *
 224:Generated_Source\PSoC4/CyFlash.c **** * Initiates a write to a row of Flash. A call to this API is non-blocking. 
 225:Generated_Source\PSoC4/CyFlash.c **** * Use CySysFlashResumeWriteRow() to resume flash writes and 
 226:Generated_Source\PSoC4/CyFlash.c **** * CySysFlashGetWriteRowStatus() to ascertain status of the write operation.
 227:Generated_Source\PSoC4/CyFlash.c **** *
 228:Generated_Source\PSoC4/CyFlash.c **** * This API is applicable only for CCG3 device families.
 229:Generated_Source\PSoC4/CyFlash.c **** *
 230:Generated_Source\PSoC4/CyFlash.c **** * For CCG3 devices, parallel code execution and programming of flash is
 231:Generated_Source\PSoC4/CyFlash.c **** * supported since 128k flash is available as two banks of 64k. Please refer to
 232:Generated_Source\PSoC4/CyFlash.c **** * the device TRM for more details.
 233:Generated_Source\PSoC4/CyFlash.c **** *
 234:Generated_Source\PSoC4/CyFlash.c **** * CCG3 devices require HFCLK to be sourced by 48 MHz IMO during flash write.
 235:Generated_Source\PSoC4/CyFlash.c **** * This API will modify IMO configuration; it can be later restored to original
 236:Generated_Source\PSoC4/CyFlash.c **** * configuration by calling \ref CySysFlashGetWriteRowStatus().
 237:Generated_Source\PSoC4/CyFlash.c **** *
 238:Generated_Source\PSoC4/CyFlash.c **** * \param rowNum The flash row number. The number of the flash rows is defined by
 239:Generated_Source\PSoC4/CyFlash.c **** * the \ref CY_FLASH_NUMBER_ROWS macro for the selected device. Refer to the
 240:Generated_Source\PSoC4/CyFlash.c **** * device datasheet for the details.
 241:Generated_Source\PSoC4/CyFlash.c **** * \note The target flash array is calculated based on the specified flash row.
 242:Generated_Source\PSoC4/CyFlash.c **** *
 243:Generated_Source\PSoC4/CyFlash.c **** * \param rowData Array of bytes to write. The size of the array must be equal to
 244:Generated_Source\PSoC4/CyFlash.c **** * the flash row size. The flash row size for the selected device is defined by
 245:Generated_Source\PSoC4/CyFlash.c **** * the \ref CY_FLASH_SIZEOF_ROW macro. Refer to the device datasheet for the
 246:Generated_Source\PSoC4/CyFlash.c **** * details.
 247:Generated_Source\PSoC4/CyFlash.c **** *
 248:Generated_Source\PSoC4/CyFlash.c **** * \return \ref group_flash_status_codes
 249:Generated_Source\PSoC4/CyFlash.c **** *
 250:Generated_Source\PSoC4/CyFlash.c **** *******************************************************************************/
 251:Generated_Source\PSoC4/CyFlash.c **** uint32 CySysFlashStartWriteRow(uint32 rowNum, const uint8 rowData[])
 252:Generated_Source\PSoC4/CyFlash.c **** {
 253:Generated_Source\PSoC4/CyFlash.c ****     volatile uint32 retValue = CY_SYS_FLASH_SUCCESS;
 254:Generated_Source\PSoC4/CyFlash.c ****     volatile uint32 parameters[(CY_FLASH_SIZEOF_ROW + CY_FLASH_SRAM_ROM_DATA) / sizeof(uint32)];
 255:Generated_Source\PSoC4/CyFlash.c ****     uint8  interruptState;
 256:Generated_Source\PSoC4/CyFlash.c **** 
 257:Generated_Source\PSoC4/CyFlash.c **** #if(CY_IP_SPCIF_SYNCHRONOUS)
 258:Generated_Source\PSoC4/CyFlash.c ****     volatile uint32 clkCnfRetValue = CY_SYS_FLASH_SUCCESS;
 259:Generated_Source\PSoC4/CyFlash.c **** #endif  /* (CY_IP_SPCIF_SYNCHRONOUS) */    
 260:Generated_Source\PSoC4/CyFlash.c **** 
 261:Generated_Source\PSoC4/CyFlash.c ****     if ((rowNum < CY_FLASH_NUMBER_ROWS) && (rowData != 0u))
 262:Generated_Source\PSoC4/CyFlash.c ****     {
 263:Generated_Source\PSoC4/CyFlash.c ****         /* Copy data to be written into internal variable */
 264:Generated_Source\PSoC4/CyFlash.c ****         (void)memcpy((void *)&parameters[2u], rowData, CY_FLASH_SIZEOF_ROW);
 265:Generated_Source\PSoC4/CyFlash.c **** 
 266:Generated_Source\PSoC4/CyFlash.c ****         /* Load Flash Bytes */
 267:Generated_Source\PSoC4/CyFlash.c ****         parameters[0u] = (uint32) (CY_FLASH_GET_MACRO_FROM_ROW(rowNum)        << CY_FLASH_PARAM_MAC
ARM GAS  C:\Users\IYANG~1.DES\AppData\Local\Temp\ccPqxEDZ.s 			page 58


 268:Generated_Source\PSoC4/CyFlash.c ****                          (uint32) (CY_FLASH_PAGE_LATCH_START_ADDR             << CY_FLASH_PARAM_ADD
 269:Generated_Source\PSoC4/CyFlash.c ****                          (uint32) (CY_FLASH_KEY_TWO(CY_FLASH_API_OPCODE_LOAD) << CY_FLASH_PARAM_KEY
 270:Generated_Source\PSoC4/CyFlash.c ****                          CY_FLASH_KEY_ONE;
 271:Generated_Source\PSoC4/CyFlash.c ****         parameters[1u] = CY_FLASH_SIZEOF_ROW - 1u;
 272:Generated_Source\PSoC4/CyFlash.c **** 
 273:Generated_Source\PSoC4/CyFlash.c ****         CY_FLASH_CPUSS_SYSARG_REG = (uint32) &parameters[0u];
 274:Generated_Source\PSoC4/CyFlash.c ****         CY_FLASH_CPUSS_SYSREQ_REG = CY_FLASH_CPUSS_REQ_START | CY_FLASH_API_OPCODE_LOAD;
 275:Generated_Source\PSoC4/CyFlash.c ****         CY_NOP;
 276:Generated_Source\PSoC4/CyFlash.c ****         retValue = CY_FLASH_API_RETURN;
 277:Generated_Source\PSoC4/CyFlash.c **** 
 278:Generated_Source\PSoC4/CyFlash.c ****         if(retValue == CY_SYS_FLASH_SUCCESS)
 279:Generated_Source\PSoC4/CyFlash.c ****         {
 280:Generated_Source\PSoC4/CyFlash.c ****             /***************************************************************
 281:Generated_Source\PSoC4/CyFlash.c ****             * Mask all the exceptions to guarantee that Flash write will
 282:Generated_Source\PSoC4/CyFlash.c ****             * occur in the atomic way. It will not affect system call
 283:Generated_Source\PSoC4/CyFlash.c ****             * execution (flash row write) since it is executed in the NMI
 284:Generated_Source\PSoC4/CyFlash.c ****             * context.
 285:Generated_Source\PSoC4/CyFlash.c ****             ***************************************************************/
 286:Generated_Source\PSoC4/CyFlash.c ****             interruptState = CyEnterCriticalSection();
 287:Generated_Source\PSoC4/CyFlash.c **** 
 288:Generated_Source\PSoC4/CyFlash.c ****         #if(CY_IP_SPCIF_SYNCHRONOUS)
 289:Generated_Source\PSoC4/CyFlash.c ****             clkCnfRetValue = CySysFlashClockBackup();
 290:Generated_Source\PSoC4/CyFlash.c ****             
 291:Generated_Source\PSoC4/CyFlash.c ****             if(clkCnfRetValue == CY_SYS_FLASH_SUCCESS)
 292:Generated_Source\PSoC4/CyFlash.c ****             {
 293:Generated_Source\PSoC4/CyFlash.c ****                 retValue = CySysFlashClockConfig();
 294:Generated_Source\PSoC4/CyFlash.c ****             }
 295:Generated_Source\PSoC4/CyFlash.c ****         #else
 296:Generated_Source\PSoC4/CyFlash.c ****             CySysFlashClockBackup();
 297:Generated_Source\PSoC4/CyFlash.c ****         #endif  /* (CY_IP_SPCIF_SYNCHRONOUS) */
 298:Generated_Source\PSoC4/CyFlash.c **** 
 299:Generated_Source\PSoC4/CyFlash.c ****             if(retValue == CY_SYS_FLASH_SUCCESS)
 300:Generated_Source\PSoC4/CyFlash.c ****             {
 301:Generated_Source\PSoC4/CyFlash.c ****                 /* Non-blocking Write Row */
 302:Generated_Source\PSoC4/CyFlash.c ****                 parameters[0u]  = (uint32) (((uint32) CY_FLASH_KEY_TWO(CY_FLASH_API_OPCODE_NON_BLOC
 303:Generated_Source\PSoC4/CyFlash.c ****                                                         CY_FLASH_PARAM_KEY_TWO_OFFSET) | CY_FLASH_K
 304:Generated_Source\PSoC4/CyFlash.c ****                 parameters[0u] |= (uint32)(rowNum << 16u);
 305:Generated_Source\PSoC4/CyFlash.c **** 
 306:Generated_Source\PSoC4/CyFlash.c ****                 CY_FLASH_CPUSS_SYSARG_REG = (uint32) &parameters[0u];
 307:Generated_Source\PSoC4/CyFlash.c ****                 CY_FLASH_CPUSS_SYSREQ_REG = CY_FLASH_CPUSS_REQ_START | CY_FLASH_API_OPCODE_NON_BLOC
 308:Generated_Source\PSoC4/CyFlash.c ****                 CY_NOP;
 309:Generated_Source\PSoC4/CyFlash.c ****                 retValue = CY_FLASH_API_RETURN;
 310:Generated_Source\PSoC4/CyFlash.c ****             }
 311:Generated_Source\PSoC4/CyFlash.c **** 
 312:Generated_Source\PSoC4/CyFlash.c ****             CyExitCriticalSection(interruptState);
 313:Generated_Source\PSoC4/CyFlash.c ****         }
 314:Generated_Source\PSoC4/CyFlash.c ****     }
 315:Generated_Source\PSoC4/CyFlash.c ****     else
 316:Generated_Source\PSoC4/CyFlash.c ****     {
 317:Generated_Source\PSoC4/CyFlash.c ****         retValue = CY_SYS_FLASH_INVALID_ADDR;
 318:Generated_Source\PSoC4/CyFlash.c ****     }
 319:Generated_Source\PSoC4/CyFlash.c **** 
 320:Generated_Source\PSoC4/CyFlash.c ****     return (retValue);
 321:Generated_Source\PSoC4/CyFlash.c **** }
 322:Generated_Source\PSoC4/CyFlash.c **** 
 323:Generated_Source\PSoC4/CyFlash.c **** 
 324:Generated_Source\PSoC4/CyFlash.c **** /*******************************************************************************
ARM GAS  C:\Users\IYANG~1.DES\AppData\Local\Temp\ccPqxEDZ.s 			page 59


 325:Generated_Source\PSoC4/CyFlash.c **** * Function Name: CySysFlashGetWriteRowStatus
 326:Generated_Source\PSoC4/CyFlash.c **** ****************************************************************************//**
 327:Generated_Source\PSoC4/CyFlash.c **** *
 328:Generated_Source\PSoC4/CyFlash.c **** * Returns the current status of the flash write operation.
 329:Generated_Source\PSoC4/CyFlash.c **** *
 330:Generated_Source\PSoC4/CyFlash.c **** * This API is applicable only for CCG3 device families.
 331:Generated_Source\PSoC4/CyFlash.c **** *
 332:Generated_Source\PSoC4/CyFlash.c **** * For CCG3 devices, parallel code execution and programming of flash is
 333:Generated_Source\PSoC4/CyFlash.c **** * supported since 128k flash is available as two banks of 64k. Please refer to
 334:Generated_Source\PSoC4/CyFlash.c **** * the device TRM for more details.
 335:Generated_Source\PSoC4/CyFlash.c **** *
 336:Generated_Source\PSoC4/CyFlash.c **** * CCG3 devices require HFCLK to be sourced by 48 MHz IMO during flash write.
 337:Generated_Source\PSoC4/CyFlash.c **** * This API will restore original IMO configuration; that has been earlier
 338:Generated_Source\PSoC4/CyFlash.c **** * modified by \ref CySysFlashStartWriteRow().
 339:Generated_Source\PSoC4/CyFlash.c **** *
 340:Generated_Source\PSoC4/CyFlash.c **** * \return \ref group_flash_status_codes
 341:Generated_Source\PSoC4/CyFlash.c **** *
 342:Generated_Source\PSoC4/CyFlash.c **** *******************************************************************************/
 343:Generated_Source\PSoC4/CyFlash.c **** uint32 CySysFlashGetWriteRowStatus(void)
 344:Generated_Source\PSoC4/CyFlash.c **** {
 345:Generated_Source\PSoC4/CyFlash.c ****     volatile uint32 retValue = CY_SYS_FLASH_SUCCESS;
 346:Generated_Source\PSoC4/CyFlash.c **** 
 347:Generated_Source\PSoC4/CyFlash.c ****     CY_NOP;
 348:Generated_Source\PSoC4/CyFlash.c ****     retValue = CY_FLASH_API_RETURN;
 349:Generated_Source\PSoC4/CyFlash.c **** 
 350:Generated_Source\PSoC4/CyFlash.c ****     (void) CySysFlashClockRestore();
 351:Generated_Source\PSoC4/CyFlash.c **** 
 352:Generated_Source\PSoC4/CyFlash.c ****     return (retValue);
 353:Generated_Source\PSoC4/CyFlash.c **** }
 354:Generated_Source\PSoC4/CyFlash.c **** 
 355:Generated_Source\PSoC4/CyFlash.c **** 
 356:Generated_Source\PSoC4/CyFlash.c **** 
 357:Generated_Source\PSoC4/CyFlash.c **** /*******************************************************************************
 358:Generated_Source\PSoC4/CyFlash.c **** * Function Name: CySysFlashResumeWriteRow
 359:Generated_Source\PSoC4/CyFlash.c **** ****************************************************************************//**
 360:Generated_Source\PSoC4/CyFlash.c **** *
 361:Generated_Source\PSoC4/CyFlash.c **** * This API must be called, once the SPC interrupt is triggered to complete the
 362:Generated_Source\PSoC4/CyFlash.c **** * non-blocking operation. It is advised not to prolong calling this API for
 363:Generated_Source\PSoC4/CyFlash.c **** * more than 25 ms.
 364:Generated_Source\PSoC4/CyFlash.c **** *
 365:Generated_Source\PSoC4/CyFlash.c **** * The non-blocking write row API \ref CySysFlashStartWriteRow() requires that
 366:Generated_Source\PSoC4/CyFlash.c **** * this API be called 3 times to complete the write. This can be done by
 367:Generated_Source\PSoC4/CyFlash.c **** * configuring SPCIF interrupt and placing a call to this API.
 368:Generated_Source\PSoC4/CyFlash.c **** *
 369:Generated_Source\PSoC4/CyFlash.c **** * For CM0 based device, a non-blocking call to program a row of macro 0
 370:Generated_Source\PSoC4/CyFlash.c **** * requires the user to set the CPUSS_CONFIG.VECS_IN_RAM bit so that the
 371:Generated_Source\PSoC4/CyFlash.c **** * interrupt vector for the SPC is fetched from the SRAM rather than the FLASH.
 372:Generated_Source\PSoC4/CyFlash.c **** *
 373:Generated_Source\PSoC4/CyFlash.c **** * For CM0+ based device, if the user wants to keep the vector table in flash
 374:Generated_Source\PSoC4/CyFlash.c **** * when performing non-blocking flash write then they need to make sure the
 375:Generated_Source\PSoC4/CyFlash.c **** * vector table is placed in the flash macro which is not getting programmed by
 376:Generated_Source\PSoC4/CyFlash.c **** * configuring the VTOR register.
 377:Generated_Source\PSoC4/CyFlash.c **** *
 378:Generated_Source\PSoC4/CyFlash.c **** * This API is applicable only for CCG3 device families.
 379:Generated_Source\PSoC4/CyFlash.c **** *
 380:Generated_Source\PSoC4/CyFlash.c **** * \return \ref group_flash_status_codes
 381:Generated_Source\PSoC4/CyFlash.c **** *
ARM GAS  C:\Users\IYANG~1.DES\AppData\Local\Temp\ccPqxEDZ.s 			page 60


 382:Generated_Source\PSoC4/CyFlash.c **** * \note Please consult the example project NonBlockingFlashWrite_Example for an
 383:Generated_Source\PSoC4/CyFlash.c **** * implementation.
 384:Generated_Source\PSoC4/CyFlash.c **** *
 385:Generated_Source\PSoC4/CyFlash.c **** *******************************************************************************/
 386:Generated_Source\PSoC4/CyFlash.c **** uint32 CySysFlashResumeWriteRow(void)
 387:Generated_Source\PSoC4/CyFlash.c **** {
 388:Generated_Source\PSoC4/CyFlash.c ****     volatile uint32 retValue = CY_SYS_FLASH_SUCCESS;
 389:Generated_Source\PSoC4/CyFlash.c ****     static volatile uint32 parameters[1u];
 390:Generated_Source\PSoC4/CyFlash.c **** 
 391:Generated_Source\PSoC4/CyFlash.c ****     /* Resume */
 392:Generated_Source\PSoC4/CyFlash.c ****     parameters[0u] = (uint32) (((uint32) CY_FLASH_KEY_TWO(CY_FLASH_API_OPCODE_RESUME_NON_BLOCKING) 
 393:Generated_Source\PSoC4/CyFlash.c ****                                          CY_FLASH_PARAM_KEY_TWO_OFFSET) | CY_FLASH_KEY_ONE);
 394:Generated_Source\PSoC4/CyFlash.c ****     CY_FLASH_CPUSS_SYSARG_REG = (uint32) &parameters[0u];
 395:Generated_Source\PSoC4/CyFlash.c ****     CY_FLASH_CPUSS_SYSREQ_REG = CY_FLASH_CPUSS_REQ_START | CY_FLASH_API_OPCODE_RESUME_NON_BLOCKING;
 396:Generated_Source\PSoC4/CyFlash.c ****     
 397:Generated_Source\PSoC4/CyFlash.c ****     CY_NOP;
 398:Generated_Source\PSoC4/CyFlash.c ****     retValue = CY_FLASH_API_RETURN;
 399:Generated_Source\PSoC4/CyFlash.c ****     
 400:Generated_Source\PSoC4/CyFlash.c ****     return (retValue);
 401:Generated_Source\PSoC4/CyFlash.c **** }
 402:Generated_Source\PSoC4/CyFlash.c **** 
 403:Generated_Source\PSoC4/CyFlash.c **** #endif /* (CY_IP_FLASH_PARALLEL_PGM_EN && (CY_IP_FLASH_MACROS > 1u)) */
 404:Generated_Source\PSoC4/CyFlash.c **** 
 405:Generated_Source\PSoC4/CyFlash.c **** 
 406:Generated_Source\PSoC4/CyFlash.c **** /*******************************************************************************
 407:Generated_Source\PSoC4/CyFlash.c **** * Function Name: CySysFlashSetWaitCycles
 408:Generated_Source\PSoC4/CyFlash.c **** ****************************************************************************//**
 409:Generated_Source\PSoC4/CyFlash.c **** *
 410:Generated_Source\PSoC4/CyFlash.c **** * Sets the number of clock cycles the cache will wait before it samples data
 411:Generated_Source\PSoC4/CyFlash.c **** * coming back from Flash. This function must be called before increasing the
 412:Generated_Source\PSoC4/CyFlash.c **** * SYSCLK clock frequency. It can optionally be called after lowering SYSCLK
 413:Generated_Source\PSoC4/CyFlash.c **** * clock frequency in order to improve the CPU performance.
 414:Generated_Source\PSoC4/CyFlash.c **** *
 415:Generated_Source\PSoC4/CyFlash.c **** * \param freq The System clock frequency in MHz.
 416:Generated_Source\PSoC4/CyFlash.c **** *
 417:Generated_Source\PSoC4/CyFlash.c **** * \note Invalid frequency will be ignored in Release mode and the CPU will be
 418:Generated_Source\PSoC4/CyFlash.c **** * halted if project is compiled in Debug mode.
 419:Generated_Source\PSoC4/CyFlash.c **** *
 420:Generated_Source\PSoC4/CyFlash.c **** *******************************************************************************/
 421:Generated_Source\PSoC4/CyFlash.c **** void CySysFlashSetWaitCycles(uint32 freq)
 422:Generated_Source\PSoC4/CyFlash.c **** {
 423:Generated_Source\PSoC4/CyFlash.c ****     uint8  interruptState;
 424:Generated_Source\PSoC4/CyFlash.c **** 
 425:Generated_Source\PSoC4/CyFlash.c ****     interruptState = CyEnterCriticalSection();
 426:Generated_Source\PSoC4/CyFlash.c **** 
 427:Generated_Source\PSoC4/CyFlash.c ****     #if (CY_IP_CPUSS)
 428:Generated_Source\PSoC4/CyFlash.c **** 
 429:Generated_Source\PSoC4/CyFlash.c ****         if ( freq <= CY_FLASH_SYSCLK_BOUNDARY_MHZ )
 430:Generated_Source\PSoC4/CyFlash.c ****         {
 431:Generated_Source\PSoC4/CyFlash.c ****             CY_SYS_CLK_SELECT_REG &= (uint32)(~CY_FLASH_WAIT_STATE_EN);
 432:Generated_Source\PSoC4/CyFlash.c ****         }
 433:Generated_Source\PSoC4/CyFlash.c ****         else
 434:Generated_Source\PSoC4/CyFlash.c ****         {
 435:Generated_Source\PSoC4/CyFlash.c ****             CY_SYS_CLK_SELECT_REG |= CY_FLASH_WAIT_STATE_EN;
 436:Generated_Source\PSoC4/CyFlash.c ****         }
 437:Generated_Source\PSoC4/CyFlash.c ****     #else
 438:Generated_Source\PSoC4/CyFlash.c ****         #if (CY_IP_CPUSS_FLASHC_PRESENT)
ARM GAS  C:\Users\IYANG~1.DES\AppData\Local\Temp\ccPqxEDZ.s 			page 61


 439:Generated_Source\PSoC4/CyFlash.c ****             /* CY_IP_FM and CY_IP_FS */
 440:Generated_Source\PSoC4/CyFlash.c ****             if (freq <= CY_FLASH_CTL_WS_0_FREQ_MAX)
 441:Generated_Source\PSoC4/CyFlash.c ****             {
 442:Generated_Source\PSoC4/CyFlash.c ****                 CY_FLASH_CTL_REG = (CY_FLASH_CTL_REG & ~CY_FLASH_CTL_WS_MASK) | CY_FLASH_CTL_WS_0_V
 443:Generated_Source\PSoC4/CyFlash.c ****             } else
 444:Generated_Source\PSoC4/CyFlash.c ****             if (freq <= CY_FLASH_CTL_WS_1_FREQ_MAX)
 445:Generated_Source\PSoC4/CyFlash.c ****             {
 446:Generated_Source\PSoC4/CyFlash.c ****                 CY_FLASH_CTL_REG = (CY_FLASH_CTL_REG & ~CY_FLASH_CTL_WS_MASK) | CY_FLASH_CTL_WS_1_V
 447:Generated_Source\PSoC4/CyFlash.c ****             } else
 448:Generated_Source\PSoC4/CyFlash.c ****             #if (CY_IP_FMLT || CY_IP_FSLT)
 449:Generated_Source\PSoC4/CyFlash.c ****                 if (freq <= CY_FLASH_CTL_WS_2_FREQ_MAX)
 450:Generated_Source\PSoC4/CyFlash.c ****                 {
 451:Generated_Source\PSoC4/CyFlash.c ****                     CY_FLASH_CTL_REG = (CY_FLASH_CTL_REG & ~CY_FLASH_CTL_WS_MASK) | CY_FLASH_CTL_WS
 452:Generated_Source\PSoC4/CyFlash.c ****                 }
 453:Generated_Source\PSoC4/CyFlash.c ****                 else
 454:Generated_Source\PSoC4/CyFlash.c ****             #endif  /* (CY_IP_FMLT || CY_IP_FSLT) */
 455:Generated_Source\PSoC4/CyFlash.c ****         #endif /* (CY_IP_CPUSS_FLASHC_PRESENT) */
 456:Generated_Source\PSoC4/CyFlash.c ****         {
 457:Generated_Source\PSoC4/CyFlash.c ****             /* Halt CPU in debug mode if frequency is invalid */
 458:Generated_Source\PSoC4/CyFlash.c ****             CYASSERT(0u != 0u);
 459:Generated_Source\PSoC4/CyFlash.c ****         }
 460:Generated_Source\PSoC4/CyFlash.c **** 
 461:Generated_Source\PSoC4/CyFlash.c ****     #endif  /* (CY_IP_CPUSS) */
 462:Generated_Source\PSoC4/CyFlash.c **** 
 463:Generated_Source\PSoC4/CyFlash.c ****     CyExitCriticalSection(interruptState);
 464:Generated_Source\PSoC4/CyFlash.c **** }
 465:Generated_Source\PSoC4/CyFlash.c **** 
 466:Generated_Source\PSoC4/CyFlash.c **** 
 467:Generated_Source\PSoC4/CyFlash.c **** #if (CY_SFLASH_XTRA_ROWS)
 468:Generated_Source\PSoC4/CyFlash.c **** /*******************************************************************************
 469:Generated_Source\PSoC4/CyFlash.c **** * Function Name: CySysSFlashWriteUserRow
 470:Generated_Source\PSoC4/CyFlash.c **** ****************************************************************************//**
 471:Generated_Source\PSoC4/CyFlash.c **** *
 472:Generated_Source\PSoC4/CyFlash.c **** * Writes data to a row of SFlash user configurable area.
 473:Generated_Source\PSoC4/CyFlash.c **** *
 474:Generated_Source\PSoC4/CyFlash.c **** * This API is applicable for PSoC 4100 BLE, PSoC 4200 BLE, PSoC 4100M,
 475:Generated_Source\PSoC4/CyFlash.c **** * PSoC 4200M, and PSoC 4200L family of devices.
 476:Generated_Source\PSoC4/CyFlash.c **** *
 477:Generated_Source\PSoC4/CyFlash.c **** * \param rowNum The flash row number. The flash row number. The number of the
 478:Generated_Source\PSoC4/CyFlash.c **** * flash rows is defined by the CY_SFLASH_NUMBER_USERROWS macro for the selected
 479:Generated_Source\PSoC4/CyFlash.c **** * device. Valid range is 0-3. Refer to the device TRM for details.
 480:Generated_Source\PSoC4/CyFlash.c **** *
 481:Generated_Source\PSoC4/CyFlash.c **** * \param rowData Array of bytes to write. The size of the array must be equal to
 482:Generated_Source\PSoC4/CyFlash.c **** * the flash row size. The flash row size for the selected device is defined by
 483:Generated_Source\PSoC4/CyFlash.c **** * the \ref CY_SFLASH_SIZEOF_USERROW macro. Refer to the device TRM for the
 484:Generated_Source\PSoC4/CyFlash.c **** * details.
 485:Generated_Source\PSoC4/CyFlash.c **** *
 486:Generated_Source\PSoC4/CyFlash.c **** * \return \ref group_flash_status_codes
 487:Generated_Source\PSoC4/CyFlash.c **** *
 488:Generated_Source\PSoC4/CyFlash.c **** *******************************************************************************/
 489:Generated_Source\PSoC4/CyFlash.c **** uint32 CySysSFlashWriteUserRow(uint32 rowNum, const uint8 rowData[])
 490:Generated_Source\PSoC4/CyFlash.c **** {
 491:Generated_Source\PSoC4/CyFlash.c ****     volatile uint32 retValue = CY_SYS_FLASH_SUCCESS;
 492:Generated_Source\PSoC4/CyFlash.c ****     volatile uint32 clkCnfRetValue = CY_SYS_FLASH_SUCCESS;
 493:Generated_Source\PSoC4/CyFlash.c ****     volatile uint32 parameters[(CY_FLASH_SIZEOF_ROW + CY_FLASH_SRAM_ROM_DATA)/4u];
 494:Generated_Source\PSoC4/CyFlash.c ****     uint8  interruptState;
 495:Generated_Source\PSoC4/CyFlash.c **** 
ARM GAS  C:\Users\IYANG~1.DES\AppData\Local\Temp\ccPqxEDZ.s 			page 62


 496:Generated_Source\PSoC4/CyFlash.c **** 
 497:Generated_Source\PSoC4/CyFlash.c ****     if ((rowNum < CY_SFLASH_NUMBER_USERROWS) && (rowData != 0u))
 498:Generated_Source\PSoC4/CyFlash.c ****     {
 499:Generated_Source\PSoC4/CyFlash.c ****         /* Load Flash Bytes */
 500:Generated_Source\PSoC4/CyFlash.c ****         parameters[0u] = (uint32) (CY_FLASH_GET_MACRO_FROM_ROW(rowNum)        << CY_FLASH_PARAM_MAC
 501:Generated_Source\PSoC4/CyFlash.c ****                          (uint32) (CY_FLASH_PAGE_LATCH_START_ADDR             << CY_FLASH_PARAM_ADD
 502:Generated_Source\PSoC4/CyFlash.c ****                          (uint32) (CY_FLASH_KEY_TWO(CY_FLASH_API_OPCODE_LOAD) << CY_FLASH_PARAM_KEY
 503:Generated_Source\PSoC4/CyFlash.c ****                          CY_FLASH_KEY_ONE;
 504:Generated_Source\PSoC4/CyFlash.c ****         parameters[1u] = CY_FLASH_SIZEOF_ROW - 1u;
 505:Generated_Source\PSoC4/CyFlash.c **** 
 506:Generated_Source\PSoC4/CyFlash.c ****         (void)memcpy((void *)&parameters[2u], rowData, CY_FLASH_SIZEOF_ROW);
 507:Generated_Source\PSoC4/CyFlash.c ****         CY_FLASH_CPUSS_SYSARG_REG = (uint32) &parameters[0u];
 508:Generated_Source\PSoC4/CyFlash.c ****         CY_FLASH_CPUSS_SYSREQ_REG = CY_FLASH_CPUSS_REQ_START | CY_FLASH_API_OPCODE_LOAD;
 509:Generated_Source\PSoC4/CyFlash.c ****         CY_NOP;
 510:Generated_Source\PSoC4/CyFlash.c ****         retValue = CY_FLASH_API_RETURN;
 511:Generated_Source\PSoC4/CyFlash.c **** 
 512:Generated_Source\PSoC4/CyFlash.c ****         if(retValue == CY_SYS_FLASH_SUCCESS)
 513:Generated_Source\PSoC4/CyFlash.c ****         {
 514:Generated_Source\PSoC4/CyFlash.c ****             /***************************************************************
 515:Generated_Source\PSoC4/CyFlash.c ****             * Mask all the exceptions to guarantee that Flash write will
 516:Generated_Source\PSoC4/CyFlash.c ****             * occur in the atomic way. It will not affect system call
 517:Generated_Source\PSoC4/CyFlash.c ****             * execution (flash row write) since it is executed in the NMI
 518:Generated_Source\PSoC4/CyFlash.c ****             * context.
 519:Generated_Source\PSoC4/CyFlash.c ****             ***************************************************************/
 520:Generated_Source\PSoC4/CyFlash.c ****             interruptState = CyEnterCriticalSection();
 521:Generated_Source\PSoC4/CyFlash.c **** 
 522:Generated_Source\PSoC4/CyFlash.c ****             clkCnfRetValue = CySysFlashClockBackup();
 523:Generated_Source\PSoC4/CyFlash.c **** 
 524:Generated_Source\PSoC4/CyFlash.c ****         #if(CY_IP_SPCIF_SYNCHRONOUS)
 525:Generated_Source\PSoC4/CyFlash.c ****             if(clkCnfRetValue == CY_SYS_FLASH_SUCCESS)
 526:Generated_Source\PSoC4/CyFlash.c ****             {
 527:Generated_Source\PSoC4/CyFlash.c ****                 retValue = CySysFlashClockConfig();
 528:Generated_Source\PSoC4/CyFlash.c ****             }
 529:Generated_Source\PSoC4/CyFlash.c ****         #endif  /* (CY_IP_SPCIF_SYNCHRONOUS) */
 530:Generated_Source\PSoC4/CyFlash.c **** 
 531:Generated_Source\PSoC4/CyFlash.c ****             if(retValue == CY_SYS_FLASH_SUCCESS)
 532:Generated_Source\PSoC4/CyFlash.c ****             {
 533:Generated_Source\PSoC4/CyFlash.c ****                 /* Write User Sflash Row */
 534:Generated_Source\PSoC4/CyFlash.c ****                 parameters[0u]  = (uint32) (((uint32) CY_FLASH_KEY_TWO(CY_FLASH_API_OPCODE_WRITE_SF
 535:Generated_Source\PSoC4/CyFlash.c ****                 parameters[1u] = (uint32) rowNum;
 536:Generated_Source\PSoC4/CyFlash.c **** 
 537:Generated_Source\PSoC4/CyFlash.c ****                 CY_FLASH_CPUSS_SYSARG_REG = (uint32) &parameters[0u];
 538:Generated_Source\PSoC4/CyFlash.c ****                 CY_FLASH_CPUSS_SYSREQ_REG = CY_FLASH_CPUSS_REQ_START | CY_FLASH_API_OPCODE_WRITE_SF
 539:Generated_Source\PSoC4/CyFlash.c ****                 CY_NOP;
 540:Generated_Source\PSoC4/CyFlash.c ****                 retValue = CY_FLASH_API_RETURN;
 541:Generated_Source\PSoC4/CyFlash.c ****             }
 542:Generated_Source\PSoC4/CyFlash.c **** 
 543:Generated_Source\PSoC4/CyFlash.c ****             if(clkCnfRetValue == CY_SYS_FLASH_SUCCESS)
 544:Generated_Source\PSoC4/CyFlash.c ****             {
 545:Generated_Source\PSoC4/CyFlash.c ****                 clkCnfRetValue = CySysFlashClockRestore();
 546:Generated_Source\PSoC4/CyFlash.c ****             }
 547:Generated_Source\PSoC4/CyFlash.c ****             CyExitCriticalSection(interruptState);
 548:Generated_Source\PSoC4/CyFlash.c ****         }
 549:Generated_Source\PSoC4/CyFlash.c ****     }
 550:Generated_Source\PSoC4/CyFlash.c ****     else
 551:Generated_Source\PSoC4/CyFlash.c ****     {
 552:Generated_Source\PSoC4/CyFlash.c ****         retValue = CY_SYS_FLASH_INVALID_ADDR;
ARM GAS  C:\Users\IYANG~1.DES\AppData\Local\Temp\ccPqxEDZ.s 			page 63


 553:Generated_Source\PSoC4/CyFlash.c ****     }
 554:Generated_Source\PSoC4/CyFlash.c **** 
 555:Generated_Source\PSoC4/CyFlash.c ****     return (retValue);
 556:Generated_Source\PSoC4/CyFlash.c **** }
 557:Generated_Source\PSoC4/CyFlash.c **** #endif /* (CY_SFLASH_XTRA_ROWS) */
 558:Generated_Source\PSoC4/CyFlash.c **** 
 559:Generated_Source\PSoC4/CyFlash.c **** 
 560:Generated_Source\PSoC4/CyFlash.c **** /*******************************************************************************
 561:Generated_Source\PSoC4/CyFlash.c **** * Function Name: CySysFlashClockBackup
 562:Generated_Source\PSoC4/CyFlash.c **** ****************************************************************************//**
 563:Generated_Source\PSoC4/CyFlash.c **** *
 564:Generated_Source\PSoC4/CyFlash.c **** * Backups the device clock configuration.
 565:Generated_Source\PSoC4/CyFlash.c **** *
 566:Generated_Source\PSoC4/CyFlash.c **** * \return The same as \ref CySysFlashWriteRow().
 567:Generated_Source\PSoC4/CyFlash.c **** *
 568:Generated_Source\PSoC4/CyFlash.c **** *******************************************************************************/
 569:Generated_Source\PSoC4/CyFlash.c **** static cystatus CySysFlashClockBackup(void)
 570:Generated_Source\PSoC4/CyFlash.c **** {
 571:Generated_Source\PSoC4/CyFlash.c ****     cystatus retValue = CY_SYS_FLASH_SUCCESS;
 572:Generated_Source\PSoC4/CyFlash.c **** #if(!CY_IP_FM)
 573:Generated_Source\PSoC4/CyFlash.c ****     #if !(CY_PSOC4_4000)
 574:Generated_Source\PSoC4/CyFlash.c ****         #if (CY_IP_SPCIF_SYNCHRONOUS)
 575:Generated_Source\PSoC4/CyFlash.c ****             volatile uint32   parameters[2u];
 576:Generated_Source\PSoC4/CyFlash.c ****         #endif /* (CY_IP_SPCIF_SYNCHRONOUS) */
 577:Generated_Source\PSoC4/CyFlash.c ****     #endif  /* !(CY_PSOC4_4000) */
 578:Generated_Source\PSoC4/CyFlash.c **** #endif  /* (!CY_IP_FM) */
 579:Generated_Source\PSoC4/CyFlash.c **** 
 580:Generated_Source\PSoC4/CyFlash.c **** #if(CY_IP_FM)
 581:Generated_Source\PSoC4/CyFlash.c **** 
 582:Generated_Source\PSoC4/CyFlash.c ****     /***************************************************************
 583:Generated_Source\PSoC4/CyFlash.c ****     * Preserve IMO configuration that could be changed during
 584:Generated_Source\PSoC4/CyFlash.c ****     * system call execution (Cypress ID #150448).
 585:Generated_Source\PSoC4/CyFlash.c ****     ***************************************************************/
 586:Generated_Source\PSoC4/CyFlash.c ****     cySysFlashBackup.imoConfigReg = CY_SYS_CLK_IMO_CONFIG_REG;
 587:Generated_Source\PSoC4/CyFlash.c **** 
 588:Generated_Source\PSoC4/CyFlash.c **** #else   /* (CY_IP_FMLT) */
 589:Generated_Source\PSoC4/CyFlash.c **** 
 590:Generated_Source\PSoC4/CyFlash.c ****     #if (CY_PSOC4_4000)
 591:Generated_Source\PSoC4/CyFlash.c **** 
 592:Generated_Source\PSoC4/CyFlash.c ****         /***************************************************************************
 593:Generated_Source\PSoC4/CyFlash.c ****         * Perform firmware clock settings backup for the PSOC4 4000 devices (the
 594:Generated_Source\PSoC4/CyFlash.c ****         * corresponding system call is not available).
 595:Generated_Source\PSoC4/CyFlash.c ****         ***************************************************************************/
 596:Generated_Source\PSoC4/CyFlash.c **** 
 597:Generated_Source\PSoC4/CyFlash.c ****         /***************************************************************************
 598:Generated_Source\PSoC4/CyFlash.c ****         * The registers listed below are modified by CySysFlashClockConfig().
 599:Generated_Source\PSoC4/CyFlash.c ****         *
 600:Generated_Source\PSoC4/CyFlash.c ****         * The registers to be saved:
 601:Generated_Source\PSoC4/CyFlash.c ****         * - CY_SYS_CLK_IMO_CONFIG_REG - IMO enable state.
 602:Generated_Source\PSoC4/CyFlash.c ****         * - CY_SYS_CLK_SELECT_REG     - HFCLK source, divider, pump source. Save
 603:Generated_Source\PSoC4/CyFlash.c ****         *                               entire register as it can be directly
 604:Generated_Source\PSoC4/CyFlash.c ****         *                               written on restore (no special
 605:Generated_Source\PSoC4/CyFlash.c ****         *                               requirements).
 606:Generated_Source\PSoC4/CyFlash.c ****         * - CY_SYS_CLK_IMO_SELECT_REG - Save IMO frequency.
 607:Generated_Source\PSoC4/CyFlash.c ****         *
 608:Generated_Source\PSoC4/CyFlash.c ****         * The registers not to be saved:
 609:Generated_Source\PSoC4/CyFlash.c ****         * - CY_SYS_CLK_IMO_TRIM1_REG  - No need to save. Function of frequency.
ARM GAS  C:\Users\IYANG~1.DES\AppData\Local\Temp\ccPqxEDZ.s 			page 64


 610:Generated_Source\PSoC4/CyFlash.c ****         *                               Restored by CySysClkWriteImoFreq().
 611:Generated_Source\PSoC4/CyFlash.c ****         * - CY_SYS_CLK_IMO_TRIM3_REG  - No need to save. Function of frequency.
 612:Generated_Source\PSoC4/CyFlash.c ****         *                               Restored by CySysClkWriteImoFreq().
 613:Generated_Source\PSoC4/CyFlash.c ****         * - REG_CPUSS_FLASH_CTL       - Flash wait cycles. Unmodified due to system
 614:Generated_Source\PSoC4/CyFlash.c ****         *                               clock 16 MHz limit.
 615:Generated_Source\PSoC4/CyFlash.c ****         ***************************************************************************/
 616:Generated_Source\PSoC4/CyFlash.c **** 
 617:Generated_Source\PSoC4/CyFlash.c ****         cySysFlashBackup.clkSelectReg = CY_SYS_CLK_SELECT_REG;
 618:Generated_Source\PSoC4/CyFlash.c ****         cySysFlashBackup.clkImoEna    = CY_SYS_CLK_IMO_CONFIG_REG & CY_SYS_CLK_IMO_CONFIG_ENABLE;
 619:Generated_Source\PSoC4/CyFlash.c ****         cySysFlashBackup.clkImoFreq   = CY_SYS_CLK_IMO_MIN_FREQ_MHZ + (CY_SYS_CLK_IMO_SELECT_REG <<
 620:Generated_Source\PSoC4/CyFlash.c **** 
 621:Generated_Source\PSoC4/CyFlash.c ****     #else
 622:Generated_Source\PSoC4/CyFlash.c **** 
 623:Generated_Source\PSoC4/CyFlash.c ****         #if (CY_IP_SPCIF_SYNCHRONOUS)
 624:Generated_Source\PSoC4/CyFlash.c ****             /* FM-Lite Clock Backup System Call */
 625:Generated_Source\PSoC4/CyFlash.c ****             parameters[0u] =
 739              		.loc 1 625 0
 740 0058 4C4B     		ldr	r3, .L35+24
 626:Generated_Source\PSoC4/CyFlash.c ****                 (uint32) ((CY_FLASH_KEY_TWO(CY_FLASH_API_OPCODE_CLK_BACKUP) <<  CY_FLASH_PARAM_KEY_
 627:Generated_Source\PSoC4/CyFlash.c ****                             CY_FLASH_KEY_ONE);
 628:Generated_Source\PSoC4/CyFlash.c ****             parameters[1u] = (uint32) &cySysFlashBackup.clockSettings[0u];
 741              		.loc 1 628 0
 742 005a 4D4A     		ldr	r2, .L35+28
 625:Generated_Source\PSoC4/CyFlash.c ****                 (uint32) ((CY_FLASH_KEY_TWO(CY_FLASH_API_OPCODE_CLK_BACKUP) <<  CY_FLASH_PARAM_KEY_
 743              		.loc 1 625 0
 744 005c 0293     		str	r3, [sp, #8]
 629:Generated_Source\PSoC4/CyFlash.c ****             CY_FLASH_CPUSS_SYSARG_REG = (uint32) &parameters[0u];
 745              		.loc 1 629 0
 746 005e 484B     		ldr	r3, .L35+12
 625:Generated_Source\PSoC4/CyFlash.c ****                 (uint32) ((CY_FLASH_KEY_TWO(CY_FLASH_API_OPCODE_CLK_BACKUP) <<  CY_FLASH_PARAM_KEY_
 747              		.loc 1 625 0
 748 0060 02A9     		add	r1, sp, #8
 628:Generated_Source\PSoC4/CyFlash.c ****             CY_FLASH_CPUSS_SYSARG_REG = (uint32) &parameters[0u];
 749              		.loc 1 628 0
 750 0062 0432     		add	r2, r2, #4
 751 0064 0392     		str	r2, [sp, #12]
 630:Generated_Source\PSoC4/CyFlash.c ****             CY_FLASH_CPUSS_SYSREQ_REG = CY_FLASH_CPUSS_REQ_START | CY_FLASH_API_OPCODE_CLK_BACKUP;
 752              		.loc 1 630 0
 753 0066 4B4D     		ldr	r5, .L35+32
 629:Generated_Source\PSoC4/CyFlash.c ****             CY_FLASH_CPUSS_SYSARG_REG = (uint32) &parameters[0u];
 754              		.loc 1 629 0
 755 0068 1960     		str	r1, [r3]
 756              		.loc 1 630 0
 757 006a 4749     		ldr	r1, .L35+20
 758 006c 0D60     		str	r5, [r1]
 631:Generated_Source\PSoC4/CyFlash.c ****             CY_NOP;
 759              		.loc 1 631 0
 760              	@ 631 "Generated_Source\PSoC4\CyFlash.c" 1
 761 006e C046     		NOP
 762              	
 763              	@ 0 "" 2
 632:Generated_Source\PSoC4/CyFlash.c ****             retValue = CY_FLASH_API_RETURN;
 764              		.loc 1 632 0
 765              		.code	16
 766 0070 1968     		ldr	r1, [r3]
 767 0072 090F     		lsr	r1, r1, #28
 768 0074 0F29     		cmp	r1, #15
ARM GAS  C:\Users\IYANG~1.DES\AppData\Local\Temp\ccPqxEDZ.s 			page 65


 769 0076 00D1     		bne	.LCB87
 770 0078 69E0     		b	.L29	@long jump
 771              	.LCB87:
 772 007a 1968     		ldr	r1, [r3]
 773 007c 090F     		lsr	r1, r1, #28
 774 007e 0A29     		cmp	r1, #10
 775 0080 00D1     		bne	.LCB93
 776 0082 62E0     		b	.L20	@long jump
 777              	.LCB93:
 778 0084 1B68     		ldr	r3, [r3]
 779              	.LVL4:
 780              	.L8:
 781              	.LBE9:
 782              	.LBE8:
 144:Generated_Source\PSoC4/CyFlash.c **** 
 783              		.loc 1 144 0
 784 0086 0193     		str	r3, [sp, #4]
 147:Generated_Source\PSoC4/CyFlash.c ****             {
 785              		.loc 1 147 0
 786 0088 019B     		ldr	r3, [sp, #4]
 787              	.LVL5:
 788 008a 002B     		cmp	r3, #0
 789 008c 4BD0     		beq	.L30
 790              	.LVL6:
 791              	.L9:
 153:Generated_Source\PSoC4/CyFlash.c ****             {
 792              		.loc 1 153 0
 793 008e 009B     		ldr	r3, [sp]
 794 0090 002B     		cmp	r3, #0
 795 0092 16D1     		bne	.L12
 156:Generated_Source\PSoC4/CyFlash.c ****                 parameters[0u] |= (uint32)(rowNum << 16u);
 796              		.loc 1 156 0
 797 0094 404B     		ldr	r3, .L35+36
 157:Generated_Source\PSoC4/CyFlash.c **** 
 798              		.loc 1 157 0
 799 0096 2404     		lsl	r4, r4, #16
 800              	.LVL7:
 156:Generated_Source\PSoC4/CyFlash.c ****                 parameters[0u] |= (uint32)(rowNum << 16u);
 801              		.loc 1 156 0
 802 0098 0693     		str	r3, [sp, #24]
 157:Generated_Source\PSoC4/CyFlash.c **** 
 803              		.loc 1 157 0
 804 009a 069B     		ldr	r3, [sp, #24]
 159:Generated_Source\PSoC4/CyFlash.c ****                 CY_FLASH_CPUSS_SYSREQ_REG = CY_FLASH_CPUSS_REQ_START | CY_FLASH_API_OPCODE_WRITE_RO
 805              		.loc 1 159 0
 806 009c 06A9     		add	r1, sp, #24
 157:Generated_Source\PSoC4/CyFlash.c **** 
 807              		.loc 1 157 0
 808 009e 1C43     		orr	r4, r3
 159:Generated_Source\PSoC4/CyFlash.c ****                 CY_FLASH_CPUSS_SYSREQ_REG = CY_FLASH_CPUSS_REQ_START | CY_FLASH_API_OPCODE_WRITE_RO
 809              		.loc 1 159 0
 810 00a0 374B     		ldr	r3, .L35+12
 157:Generated_Source\PSoC4/CyFlash.c **** 
 811              		.loc 1 157 0
 812 00a2 0694     		str	r4, [sp, #24]
 159:Generated_Source\PSoC4/CyFlash.c ****                 CY_FLASH_CPUSS_SYSREQ_REG = CY_FLASH_CPUSS_REQ_START | CY_FLASH_API_OPCODE_WRITE_RO
 813              		.loc 1 159 0
ARM GAS  C:\Users\IYANG~1.DES\AppData\Local\Temp\ccPqxEDZ.s 			page 66


 814 00a4 1960     		str	r1, [r3]
 160:Generated_Source\PSoC4/CyFlash.c ****                 CY_NOP;
 815              		.loc 1 160 0
 816 00a6 3D4C     		ldr	r4, .L35+40
 817 00a8 3749     		ldr	r1, .L35+20
 818 00aa 0C60     		str	r4, [r1]
 161:Generated_Source\PSoC4/CyFlash.c ****                 retValue = CY_FLASH_API_RETURN;
 819              		.loc 1 161 0
 820              	@ 161 "Generated_Source\PSoC4\CyFlash.c" 1
 821 00ac C046     		NOP
 822              	
 823              	@ 0 "" 2
 162:Generated_Source\PSoC4/CyFlash.c ****             }
 824              		.loc 1 162 0
 825              		.code	16
 826 00ae 1968     		ldr	r1, [r3]
 827 00b0 090F     		lsr	r1, r1, #28
 828 00b2 0F29     		cmp	r1, #15
 829 00b4 2DD0     		beq	.L31
 162:Generated_Source\PSoC4/CyFlash.c ****             }
 830              		.loc 1 162 0 is_stmt 0 discriminator 2
 831 00b6 1968     		ldr	r1, [r3]
 832 00b8 090F     		lsr	r1, r1, #28
 833 00ba 0A29     		cmp	r1, #10
 834 00bc 4BD0     		beq	.L22
 162:Generated_Source\PSoC4/CyFlash.c ****             }
 835              		.loc 1 162 0 discriminator 4
 836 00be 1B68     		ldr	r3, [r3]
 837 00c0 0093     		str	r3, [sp]
 838              	.L12:
 201:Generated_Source\PSoC4/CyFlash.c ****             {
 839              		.loc 1 201 0 is_stmt 1
 840 00c2 019B     		ldr	r3, [sp, #4]
 841 00c4 002B     		cmp	r3, #0
 842 00c6 0FD0     		beq	.L32
 843              	.L15:
 206:Generated_Source\PSoC4/CyFlash.c ****         }
 844              		.loc 1 206 0
 845 00c8 FFF7FEFF 		bl	CyExitCriticalSection
 846              	.LVL8:
 847 00cc 01E0     		b	.L6
 848              	.LVL9:
 849              	.L2:
 211:Generated_Source\PSoC4/CyFlash.c ****     }
 850              		.loc 1 211 0
 851 00ce 0423     		mov	r3, #4
 852 00d0 0093     		str	r3, [sp]
 853              	.LVL10:
 854              	.L6:
 214:Generated_Source\PSoC4/CyFlash.c **** }
 855              		.loc 1 214 0
 856 00d2 0098     		ldr	r0, [sp]
 215:Generated_Source\PSoC4/CyFlash.c **** 
 857              		.loc 1 215 0
 858 00d4 29B0     		add	sp, sp, #164
 859              		@ sp needed
 860 00d6 30BD     		pop	{r4, r5, pc}
ARM GAS  C:\Users\IYANG~1.DES\AppData\Local\Temp\ccPqxEDZ.s 			page 67


 861              	.LVL11:
 862              	.L18:
 125:Generated_Source\PSoC4/CyFlash.c ****                          CY_FLASH_KEY_ONE;
 863              		.loc 1 125 0
 864 00d8 314B     		ldr	r3, .L35+44
 865 00da A4E7     		b	.L3
 866              	.L28:
 132:Generated_Source\PSoC4/CyFlash.c **** 
 867              		.loc 1 132 0 discriminator 1
 868 00dc 1B68     		ldr	r3, [r3]
 869 00de F032     		add	r2, r2, #240
 870 00e0 1340     		and	r3, r2
 871 00e2 B3E7     		b	.L5
 872              	.L19:
 132:Generated_Source\PSoC4/CyFlash.c **** 
 873              		.loc 1 132 0 is_stmt 0
 874 00e4 0023     		mov	r3, #0
 875 00e6 B1E7     		b	.L5
 876              	.LVL12:
 877              	.L32:
 878              	.LBB11:
 879              	.LBB12:
 633:Generated_Source\PSoC4/CyFlash.c ****         #endif /* (CY_IP_SPCIF_SYNCHRONOUS) */
 634:Generated_Source\PSoC4/CyFlash.c **** 
 635:Generated_Source\PSoC4/CyFlash.c ****     #endif  /* (CY_PSOC4_4000) */
 636:Generated_Source\PSoC4/CyFlash.c **** 
 637:Generated_Source\PSoC4/CyFlash.c **** #endif  /* (CY_IP_FM) */
 638:Generated_Source\PSoC4/CyFlash.c **** 
 639:Generated_Source\PSoC4/CyFlash.c ****     return (retValue);
 640:Generated_Source\PSoC4/CyFlash.c **** }
 641:Generated_Source\PSoC4/CyFlash.c **** 
 642:Generated_Source\PSoC4/CyFlash.c **** 
 643:Generated_Source\PSoC4/CyFlash.c **** #if(CY_IP_SPCIF_SYNCHRONOUS)
 644:Generated_Source\PSoC4/CyFlash.c **** /*******************************************************************************
 645:Generated_Source\PSoC4/CyFlash.c **** * Function Name: CySysFlashClockConfig
 646:Generated_Source\PSoC4/CyFlash.c **** ****************************************************************************//**
 647:Generated_Source\PSoC4/CyFlash.c **** *
 648:Generated_Source\PSoC4/CyFlash.c **** * Configures the device clocks for the flash writing.
 649:Generated_Source\PSoC4/CyFlash.c **** *
 650:Generated_Source\PSoC4/CyFlash.c **** * \return The same as \ref CySysFlashWriteRow().
 651:Generated_Source\PSoC4/CyFlash.c **** *
 652:Generated_Source\PSoC4/CyFlash.c **** *******************************************************************************/
 653:Generated_Source\PSoC4/CyFlash.c **** static cystatus CySysFlashClockConfig(void)
 654:Generated_Source\PSoC4/CyFlash.c **** {
 655:Generated_Source\PSoC4/CyFlash.c ****     cystatus retValue = CY_SYS_FLASH_SUCCESS;
 656:Generated_Source\PSoC4/CyFlash.c **** 
 657:Generated_Source\PSoC4/CyFlash.c ****     /***************************************************************************
 658:Generated_Source\PSoC4/CyFlash.c ****     * The FM-Lite IP uses the IMO at 48MHz for the pump clock and SPC timer
 659:Generated_Source\PSoC4/CyFlash.c ****     * clock. The PUMP_SEL and HF clock must be set to IMO before calling Flash
 660:Generated_Source\PSoC4/CyFlash.c ****     * write or erase operation.
 661:Generated_Source\PSoC4/CyFlash.c ****     ***************************************************************************/
 662:Generated_Source\PSoC4/CyFlash.c **** #if (CY_PSOC4_4000)
 663:Generated_Source\PSoC4/CyFlash.c **** 
 664:Generated_Source\PSoC4/CyFlash.c ****     /***************************************************************************
 665:Generated_Source\PSoC4/CyFlash.c ****     * Perform firmware clock settings setup for the PSOC4 4000 devices (the
 666:Generated_Source\PSoC4/CyFlash.c ****     * corresponding system call is not reliable):
 667:Generated_Source\PSoC4/CyFlash.c ****     * - The IMO frequency should be 48 MHz
ARM GAS  C:\Users\IYANG~1.DES\AppData\Local\Temp\ccPqxEDZ.s 			page 68


 668:Generated_Source\PSoC4/CyFlash.c ****     * - The IMO should be source for the HFCLK
 669:Generated_Source\PSoC4/CyFlash.c ****     * - The IMO should be the source for the charge pump clock
 670:Generated_Source\PSoC4/CyFlash.c ****     *
 671:Generated_Source\PSoC4/CyFlash.c ****     * Note The structure members used below are initialized by
 672:Generated_Source\PSoC4/CyFlash.c ****     * the CySysFlashClockBackup() function.
 673:Generated_Source\PSoC4/CyFlash.c ****     ***************************************************************************/
 674:Generated_Source\PSoC4/CyFlash.c ****     if ((cySysFlashBackup.clkImoFreq != 48u) ||
 675:Generated_Source\PSoC4/CyFlash.c ****         ((cySysFlashBackup.clkSelectReg & CY_SYS_CLK_SELECT_DIRECT_SEL_MASK) != CY_SYS_CLK_HFCLK_IM
 676:Generated_Source\PSoC4/CyFlash.c ****         (((cySysFlashBackup.clkSelectReg >> CY_SYS_CLK_SELECT_PUMP_SEL_SHIFT) & CY_SYS_CLK_SELECT_P
 677:Generated_Source\PSoC4/CyFlash.c ****             CY_SYS_CLK_SELECT_PUMP_SEL_IMO))
 678:Generated_Source\PSoC4/CyFlash.c ****     {
 679:Generated_Source\PSoC4/CyFlash.c ****         /***********************************************************************
 680:Generated_Source\PSoC4/CyFlash.c ****          Set HFCLK divider to divide-by-4 to ensure that System clock frequency
 681:Generated_Source\PSoC4/CyFlash.c ****         * is within the valid limit (16 MHz for the PSoC4 4000).
 682:Generated_Source\PSoC4/CyFlash.c ****         ***********************************************************************/
 683:Generated_Source\PSoC4/CyFlash.c ****         CySysClkWriteHfclkDiv(CY_SYS_CLK_HFCLK_DIV_4);
 684:Generated_Source\PSoC4/CyFlash.c **** 
 685:Generated_Source\PSoC4/CyFlash.c ****         /* The IMO frequency should be 48 MHz */
 686:Generated_Source\PSoC4/CyFlash.c ****         if (cySysFlashBackup.clkImoFreq != 48u)
 687:Generated_Source\PSoC4/CyFlash.c ****         {
 688:Generated_Source\PSoC4/CyFlash.c ****             CySysClkWriteImoFreq(48u);
 689:Generated_Source\PSoC4/CyFlash.c ****         }
 690:Generated_Source\PSoC4/CyFlash.c ****         CySysClkImoStart();
 691:Generated_Source\PSoC4/CyFlash.c **** 
 692:Generated_Source\PSoC4/CyFlash.c ****         /* The IMO should be source for the HFCLK */
 693:Generated_Source\PSoC4/CyFlash.c ****         CySysClkWriteHfclkDirect(CY_SYS_CLK_HFCLK_IMO);
 694:Generated_Source\PSoC4/CyFlash.c **** 
 695:Generated_Source\PSoC4/CyFlash.c ****         /* The IMO should be the source for the charge pump clock */
 696:Generated_Source\PSoC4/CyFlash.c ****         CY_SYS_CLK_SELECT_REG =  (CY_SYS_CLK_SELECT_REG &
 697:Generated_Source\PSoC4/CyFlash.c ****             ((uint32)~(uint32)(CY_SYS_CLK_SELECT_PUMP_SEL_MASK << CY_SYS_CLK_SELECT_PUMP_SEL_SHIFT)
 698:Generated_Source\PSoC4/CyFlash.c ****             ((uint32)((uint32)1u << CY_SYS_CLK_SELECT_PUMP_SEL_SHIFT));
 699:Generated_Source\PSoC4/CyFlash.c ****     }
 700:Generated_Source\PSoC4/CyFlash.c **** 
 701:Generated_Source\PSoC4/CyFlash.c **** #else
 702:Generated_Source\PSoC4/CyFlash.c **** 
 703:Generated_Source\PSoC4/CyFlash.c ****     /* FM-Lite Clock Configuration */
 704:Generated_Source\PSoC4/CyFlash.c ****     CY_FLASH_CPUSS_SYSARG_REG =
 705:Generated_Source\PSoC4/CyFlash.c ****         (uint32) ((CY_FLASH_KEY_TWO(CY_FLASH_API_OPCODE_CLK_CONFIG) <<  CY_FLASH_PARAM_KEY_TWO_OFFS
 706:Generated_Source\PSoC4/CyFlash.c ****                     CY_FLASH_KEY_ONE);
 707:Generated_Source\PSoC4/CyFlash.c ****     CY_FLASH_CPUSS_SYSREQ_REG = CY_FLASH_CPUSS_REQ_START | CY_FLASH_API_OPCODE_CLK_CONFIG;
 708:Generated_Source\PSoC4/CyFlash.c ****     CY_NOP;
 709:Generated_Source\PSoC4/CyFlash.c ****     retValue = CY_FLASH_API_RETURN;
 710:Generated_Source\PSoC4/CyFlash.c **** 
 711:Generated_Source\PSoC4/CyFlash.c **** #endif  /* (CY_PSOC4_4000) */
 712:Generated_Source\PSoC4/CyFlash.c **** 
 713:Generated_Source\PSoC4/CyFlash.c ****     return (retValue);
 714:Generated_Source\PSoC4/CyFlash.c **** }
 715:Generated_Source\PSoC4/CyFlash.c **** #endif  /* (CY_IP_SPCIF_SYNCHRONOUS) */
 716:Generated_Source\PSoC4/CyFlash.c **** 
 717:Generated_Source\PSoC4/CyFlash.c **** 
 718:Generated_Source\PSoC4/CyFlash.c **** /*******************************************************************************
 719:Generated_Source\PSoC4/CyFlash.c **** * Function Name: CySysFlashClockRestore
 720:Generated_Source\PSoC4/CyFlash.c **** ****************************************************************************//**
 721:Generated_Source\PSoC4/CyFlash.c **** *
 722:Generated_Source\PSoC4/CyFlash.c **** * Restores the device clock configuration.
 723:Generated_Source\PSoC4/CyFlash.c **** *
 724:Generated_Source\PSoC4/CyFlash.c **** * \return The same as \ref CySysFlashWriteRow().
ARM GAS  C:\Users\IYANG~1.DES\AppData\Local\Temp\ccPqxEDZ.s 			page 69


 725:Generated_Source\PSoC4/CyFlash.c **** *
 726:Generated_Source\PSoC4/CyFlash.c **** *******************************************************************************/
 727:Generated_Source\PSoC4/CyFlash.c **** static cystatus CySysFlashClockRestore(void)
 728:Generated_Source\PSoC4/CyFlash.c **** {
 729:Generated_Source\PSoC4/CyFlash.c ****     cystatus retValue = CY_SYS_FLASH_SUCCESS;
 730:Generated_Source\PSoC4/CyFlash.c **** #if(!CY_IP_FM)
 731:Generated_Source\PSoC4/CyFlash.c ****     #if !(CY_PSOC4_4000)
 732:Generated_Source\PSoC4/CyFlash.c ****         #if (CY_IP_SPCIF_SYNCHRONOUS)
 733:Generated_Source\PSoC4/CyFlash.c ****             volatile uint32   parameters[2u];
 734:Generated_Source\PSoC4/CyFlash.c ****         #endif /* (CY_IP_SPCIF_SYNCHRONOUS) */
 735:Generated_Source\PSoC4/CyFlash.c ****     #endif  /* !(CY_PSOC4_4000) */
 736:Generated_Source\PSoC4/CyFlash.c **** #endif  /* (!CY_IP_FM) */
 737:Generated_Source\PSoC4/CyFlash.c **** 
 738:Generated_Source\PSoC4/CyFlash.c **** #if(CY_IP_FM)
 739:Generated_Source\PSoC4/CyFlash.c **** 
 740:Generated_Source\PSoC4/CyFlash.c ****     /***************************************************************
 741:Generated_Source\PSoC4/CyFlash.c ****     * Restore IMO configuration that could be changed during
 742:Generated_Source\PSoC4/CyFlash.c ****     * system call execution (Cypress ID #150448).
 743:Generated_Source\PSoC4/CyFlash.c ****     ***************************************************************/
 744:Generated_Source\PSoC4/CyFlash.c ****     CY_SYS_CLK_IMO_CONFIG_REG = cySysFlashBackup.imoConfigReg;
 745:Generated_Source\PSoC4/CyFlash.c **** 
 746:Generated_Source\PSoC4/CyFlash.c **** #else
 747:Generated_Source\PSoC4/CyFlash.c **** 
 748:Generated_Source\PSoC4/CyFlash.c ****     #if (CY_PSOC4_4000)
 749:Generated_Source\PSoC4/CyFlash.c **** 
 750:Generated_Source\PSoC4/CyFlash.c ****         /***************************************************************************
 751:Generated_Source\PSoC4/CyFlash.c ****         * Perform firmware clock settings restore for the PSOC4 4000 devices (the
 752:Generated_Source\PSoC4/CyFlash.c ****         * corresponding system call is not available).
 753:Generated_Source\PSoC4/CyFlash.c ****         ***************************************************************************/
 754:Generated_Source\PSoC4/CyFlash.c **** 
 755:Generated_Source\PSoC4/CyFlash.c ****         /* Restore clock settings */
 756:Generated_Source\PSoC4/CyFlash.c ****         if ((cySysFlashBackup.clkImoFreq != 48u) ||
 757:Generated_Source\PSoC4/CyFlash.c ****             ((cySysFlashBackup.clkSelectReg & CY_SYS_CLK_SELECT_DIRECT_SEL_MASK) != CY_SYS_CLK_HFCL
 758:Generated_Source\PSoC4/CyFlash.c ****             (((cySysFlashBackup.clkSelectReg >> CY_SYS_CLK_SELECT_PUMP_SEL_SHIFT) & CY_SYS_CLK_SELE
 759:Generated_Source\PSoC4/CyFlash.c ****                 CY_SYS_CLK_SELECT_PUMP_SEL_IMO))
 760:Generated_Source\PSoC4/CyFlash.c ****         {
 761:Generated_Source\PSoC4/CyFlash.c ****             /* Restore IMO frequency if needed */
 762:Generated_Source\PSoC4/CyFlash.c ****             if (cySysFlashBackup.clkImoFreq != 48u)
 763:Generated_Source\PSoC4/CyFlash.c ****             {
 764:Generated_Source\PSoC4/CyFlash.c ****                 CySysClkWriteImoFreq(cySysFlashBackup.clkImoFreq);
 765:Generated_Source\PSoC4/CyFlash.c ****             }
 766:Generated_Source\PSoC4/CyFlash.c **** 
 767:Generated_Source\PSoC4/CyFlash.c ****             /* Restore HFCLK clock source */
 768:Generated_Source\PSoC4/CyFlash.c ****             CySysClkWriteHfclkDirect(cySysFlashBackup.clkSelectReg & CY_SYS_CLK_SELECT_DIRECT_SEL_M
 769:Generated_Source\PSoC4/CyFlash.c **** 
 770:Generated_Source\PSoC4/CyFlash.c ****             /* Restore HFCLK divider and source for pump  */
 771:Generated_Source\PSoC4/CyFlash.c ****             CY_SYS_CLK_SELECT_REG = cySysFlashBackup.clkSelectReg;
 772:Generated_Source\PSoC4/CyFlash.c **** 
 773:Generated_Source\PSoC4/CyFlash.c ****             /* Stop IMO if needed */
 774:Generated_Source\PSoC4/CyFlash.c ****             if (0u == cySysFlashBackup.clkImoEna)
 775:Generated_Source\PSoC4/CyFlash.c ****             {
 776:Generated_Source\PSoC4/CyFlash.c ****                 CySysClkImoStop();
 777:Generated_Source\PSoC4/CyFlash.c ****             }
 778:Generated_Source\PSoC4/CyFlash.c ****         }
 779:Generated_Source\PSoC4/CyFlash.c **** 
 780:Generated_Source\PSoC4/CyFlash.c ****     #else
 781:Generated_Source\PSoC4/CyFlash.c **** 
ARM GAS  C:\Users\IYANG~1.DES\AppData\Local\Temp\ccPqxEDZ.s 			page 70


 782:Generated_Source\PSoC4/CyFlash.c ****         #if (CY_IP_SPCIF_SYNCHRONOUS)
 783:Generated_Source\PSoC4/CyFlash.c ****             /* FM-Lite Clock Restore */
 784:Generated_Source\PSoC4/CyFlash.c ****             parameters[0u] =
 880              		.loc 1 784 0 is_stmt 1
 881 00e8 2E4B     		ldr	r3, .L35+48
 882 00ea 04A9     		add	r1, sp, #16
 883 00ec 0493     		str	r3, [sp, #16]
 785:Generated_Source\PSoC4/CyFlash.c ****                 (uint32) ((CY_FLASH_KEY_TWO(CY_FLASH_API_OPCODE_CLK_RESTORE) <<  CY_FLASH_PARAM_KEY
 786:Generated_Source\PSoC4/CyFlash.c ****                             CY_FLASH_KEY_ONE);
 787:Generated_Source\PSoC4/CyFlash.c ****             parameters[1u] = (uint32) &cySysFlashBackup.clockSettings[0u];
 788:Generated_Source\PSoC4/CyFlash.c ****             CY_FLASH_CPUSS_SYSARG_REG = (uint32) &parameters[0u];
 884              		.loc 1 788 0
 885 00ee 244B     		ldr	r3, .L35+12
 787:Generated_Source\PSoC4/CyFlash.c ****             CY_FLASH_CPUSS_SYSARG_REG = (uint32) &parameters[0u];
 886              		.loc 1 787 0
 887 00f0 0592     		str	r2, [sp, #20]
 888              		.loc 1 788 0
 889 00f2 1960     		str	r1, [r3]
 789:Generated_Source\PSoC4/CyFlash.c ****             CY_FLASH_CPUSS_SYSREQ_REG = CY_FLASH_CPUSS_REQ_START | CY_FLASH_API_OPCODE_CLK_RESTORE;
 890              		.loc 1 789 0
 891 00f4 244A     		ldr	r2, .L35+20
 892 00f6 2C49     		ldr	r1, .L35+52
 893 00f8 1160     		str	r1, [r2]
 790:Generated_Source\PSoC4/CyFlash.c ****             CY_NOP;
 894              		.loc 1 790 0
 895              	@ 790 "Generated_Source\PSoC4\CyFlash.c" 1
 896 00fa C046     		NOP
 897              	
 898              	@ 0 "" 2
 791:Generated_Source\PSoC4/CyFlash.c ****             retValue = CY_FLASH_API_RETURN;
 899              		.loc 1 791 0
 900              		.code	16
 901 00fc 1A68     		ldr	r2, [r3]
 902 00fe 120F     		lsr	r2, r2, #28
 903 0100 0F2A     		cmp	r2, #15
 904 0102 0BD0     		beq	.L33
 905 0104 1A68     		ldr	r2, [r3]
 906 0106 120F     		lsr	r2, r2, #28
 907 0108 0A2A     		cmp	r2, #10
 908 010a 27D0     		beq	.L23
 909 010c 1B68     		ldr	r3, [r3]
 910              	.LVL13:
 911              	.LBE12:
 912              	.LBE11:
 203:Generated_Source\PSoC4/CyFlash.c ****             }
 913              		.loc 1 203 0
 914 010e 0193     		str	r3, [sp, #4]
 915 0110 DAE7     		b	.L15
 916              	.LVL14:
 917              	.L31:
 162:Generated_Source\PSoC4/CyFlash.c ****             }
 918              		.loc 1 162 0 discriminator 1
 919 0112 1B68     		ldr	r3, [r3]
 920 0114 F031     		add	r1, r1, #240
 921 0116 0B40     		and	r3, r1
 922 0118 0093     		str	r3, [sp]
 923 011a D2E7     		b	.L12
ARM GAS  C:\Users\IYANG~1.DES\AppData\Local\Temp\ccPqxEDZ.s 			page 71


 924              	.LVL15:
 925              	.L33:
 926              	.LBB15:
 927              	.LBB13:
 928              		.loc 1 791 0
 929 011c 1B68     		ldr	r3, [r3]
 930 011e F032     		add	r2, r2, #240
 931 0120 1340     		and	r3, r2
 932              	.LVL16:
 933              	.LBE13:
 934              	.LBE15:
 203:Generated_Source\PSoC4/CyFlash.c ****             }
 935              		.loc 1 203 0
 936 0122 0193     		str	r3, [sp, #4]
 937 0124 D0E7     		b	.L15
 938              	.LVL17:
 939              	.L30:
 940              	.LBB16:
 941              	.LBB17:
 704:Generated_Source\PSoC4/CyFlash.c ****         (uint32) ((CY_FLASH_KEY_TWO(CY_FLASH_API_OPCODE_CLK_CONFIG) <<  CY_FLASH_PARAM_KEY_TWO_OFFS
 942              		.loc 1 704 0
 943 0126 164B     		ldr	r3, .L35+12
 944 0128 2049     		ldr	r1, .L35+56
 707:Generated_Source\PSoC4/CyFlash.c ****     CY_NOP;
 945              		.loc 1 707 0
 946 012a 214D     		ldr	r5, .L35+60
 704:Generated_Source\PSoC4/CyFlash.c ****         (uint32) ((CY_FLASH_KEY_TWO(CY_FLASH_API_OPCODE_CLK_CONFIG) <<  CY_FLASH_PARAM_KEY_TWO_OFFS
 947              		.loc 1 704 0
 948 012c 1960     		str	r1, [r3]
 949              	.LVL18:
 707:Generated_Source\PSoC4/CyFlash.c ****     CY_NOP;
 950              		.loc 1 707 0
 951 012e 1649     		ldr	r1, .L35+20
 952 0130 0D60     		str	r5, [r1]
 708:Generated_Source\PSoC4/CyFlash.c ****     retValue = CY_FLASH_API_RETURN;
 953              		.loc 1 708 0
 954              	@ 708 "Generated_Source\PSoC4\CyFlash.c" 1
 955 0132 C046     		NOP
 956              	
 957              	@ 0 "" 2
 709:Generated_Source\PSoC4/CyFlash.c **** 
 958              		.loc 1 709 0
 959              		.code	16
 960 0134 1968     		ldr	r1, [r3]
 961 0136 090F     		lsr	r1, r1, #28
 962 0138 0F29     		cmp	r1, #15
 963 013a 15D0     		beq	.L34
 964 013c 1968     		ldr	r1, [r3]
 965 013e 090F     		lsr	r1, r1, #28
 966 0140 0A29     		cmp	r1, #10
 967 0142 0ED0     		beq	.L21
 968 0144 1B68     		ldr	r3, [r3]
 969              	.LVL19:
 970              	.LBE17:
 971              	.LBE16:
 149:Generated_Source\PSoC4/CyFlash.c ****             }
 972              		.loc 1 149 0
ARM GAS  C:\Users\IYANG~1.DES\AppData\Local\Temp\ccPqxEDZ.s 			page 72


 973 0146 0093     		str	r3, [sp]
 974 0148 A1E7     		b	.L9
 975              	.LVL20:
 976              	.L20:
 977              	.LBB20:
 978              	.LBB10:
 632:Generated_Source\PSoC4/CyFlash.c ****         #endif /* (CY_IP_SPCIF_SYNCHRONOUS) */
 979              		.loc 1 632 0
 980 014a 0023     		mov	r3, #0
 981 014c 9BE7     		b	.L8
 982              	.L29:
 983 014e 1B68     		ldr	r3, [r3]
 984 0150 F031     		add	r1, r1, #240
 985 0152 0B40     		and	r3, r1
 986 0154 97E7     		b	.L8
 987              	.LVL21:
 988              	.L22:
 989              	.LBE10:
 990              	.LBE20:
 162:Generated_Source\PSoC4/CyFlash.c ****             }
 991              		.loc 1 162 0
 992 0156 0023     		mov	r3, #0
 993 0158 0093     		str	r3, [sp]
 994 015a B2E7     		b	.L12
 995              	.LVL22:
 996              	.L23:
 997              	.LBB21:
 998              	.LBB14:
 999              		.loc 1 791 0
 1000 015c 0023     		mov	r3, #0
 1001              	.LVL23:
 1002              	.LBE14:
 1003              	.LBE21:
 203:Generated_Source\PSoC4/CyFlash.c ****             }
 1004              		.loc 1 203 0
 1005 015e 0193     		str	r3, [sp, #4]
 1006 0160 B2E7     		b	.L15
 1007              	.LVL24:
 1008              	.L21:
 1009              	.LBB22:
 1010              	.LBB18:
 709:Generated_Source\PSoC4/CyFlash.c **** 
 1011              		.loc 1 709 0
 1012 0162 0023     		mov	r3, #0
 1013              	.LVL25:
 1014              	.LBE18:
 1015              	.LBE22:
 149:Generated_Source\PSoC4/CyFlash.c ****             }
 1016              		.loc 1 149 0
 1017 0164 0093     		str	r3, [sp]
 1018 0166 92E7     		b	.L9
 1019              	.LVL26:
 1020              	.L34:
 1021              	.LBB23:
 1022              	.LBB19:
 709:Generated_Source\PSoC4/CyFlash.c **** 
 1023              		.loc 1 709 0
ARM GAS  C:\Users\IYANG~1.DES\AppData\Local\Temp\ccPqxEDZ.s 			page 73


 1024 0168 1B68     		ldr	r3, [r3]
 1025 016a F031     		add	r1, r1, #240
 1026 016c 0B40     		and	r3, r1
 1027              	.LVL27:
 1028              	.LBE19:
 1029              	.LBE23:
 149:Generated_Source\PSoC4/CyFlash.c ****             }
 1030              		.loc 1 149 0
 1031 016e 0093     		str	r3, [sp]
 1032 0170 8DE7     		b	.L9
 1033              	.L36:
 1034 0172 C046     		.align	2
 1035              	.L35:
 1036 0174 FF030000 		.word	1023
 1037 0178 FF010000 		.word	511
 1038 017c B6D70000 		.word	55222
 1039 0180 08001040 		.word	1074790408
 1040 0184 04000080 		.word	-2147483644
 1041 0188 04001040 		.word	1074790404
 1042 018c B6E90000 		.word	59830
 1043 0190 00000000 		.word	.LANCHOR0
 1044 0194 16000080 		.word	-2147483626
 1045 0198 B6D80000 		.word	55478
 1046 019c 05000080 		.word	-2147483643
 1047 01a0 B6D70001 		.word	16832438
 1048 01a4 B6EA0000 		.word	60086
 1049 01a8 17000080 		.word	-2147483625
 1050 01ac B6E80000 		.word	59574
 1051 01b0 15000080 		.word	-2147483627
 1052              		.cfi_endproc
 1053              	.LFE2:
 1054              		.size	CySysFlashWriteRow, .-CySysFlashWriteRow
 1055              		.section	.text.CySysFlashSetWaitCycles,"ax",%progbits
 1056              		.align	2
 1057              		.global	CySysFlashSetWaitCycles
 1058              		.code	16
 1059              		.thumb_func
 1060              		.type	CySysFlashSetWaitCycles, %function
 1061              	CySysFlashSetWaitCycles:
 1062              	.LFB3:
 422:Generated_Source\PSoC4/CyFlash.c ****     uint8  interruptState;
 1063              		.loc 1 422 0
 1064              		.cfi_startproc
 1065              	.LVL28:
 1066 0000 38B5     		push	{r3, r4, r5, lr}
 1067              		.cfi_def_cfa_offset 16
 1068              		.cfi_offset 3, -16
 1069              		.cfi_offset 4, -12
 1070              		.cfi_offset 5, -8
 1071              		.cfi_offset 14, -4
 422:Generated_Source\PSoC4/CyFlash.c ****     uint8  interruptState;
 1072              		.loc 1 422 0
 1073 0002 041C     		mov	r4, r0
 425:Generated_Source\PSoC4/CyFlash.c **** 
 1074              		.loc 1 425 0
 1075 0004 FFF7FEFF 		bl	CyEnterCriticalSection
 1076              	.LVL29:
ARM GAS  C:\Users\IYANG~1.DES\AppData\Local\Temp\ccPqxEDZ.s 			page 74


 1077 0008 051C     		mov	r5, r0
 1078              	.LVL30:
 440:Generated_Source\PSoC4/CyFlash.c ****             {
 1079              		.loc 1 440 0
 1080 000a 102C     		cmp	r4, #16
 1081 000c 16D9     		bls	.L42
 444:Generated_Source\PSoC4/CyFlash.c ****             {
 1082              		.loc 1 444 0
 1083 000e 202C     		cmp	r4, #32
 1084 0010 0CD9     		bls	.L43
 449:Generated_Source\PSoC4/CyFlash.c ****                 {
 1085              		.loc 1 449 0
 1086 0012 302C     		cmp	r4, #48
 1087 0014 18D8     		bhi	.L41
 451:Generated_Source\PSoC4/CyFlash.c ****                 }
 1088              		.loc 1 451 0
 1089 0016 0322     		mov	r2, #3
 1090 0018 0D49     		ldr	r1, .L44
 1091 001a 0B68     		ldr	r3, [r1]
 1092 001c 9343     		bic	r3, r2
 1093 001e 013A     		sub	r2, r2, #1
 1094 0020 1343     		orr	r3, r2
 1095 0022 0B60     		str	r3, [r1]
 1096              	.L39:
 463:Generated_Source\PSoC4/CyFlash.c **** }
 1097              		.loc 1 463 0
 1098 0024 281C     		mov	r0, r5
 1099 0026 FFF7FEFF 		bl	CyExitCriticalSection
 1100              	.LVL31:
 464:Generated_Source\PSoC4/CyFlash.c **** 
 1101              		.loc 1 464 0
 1102              		@ sp needed
 1103              	.LVL32:
 1104              	.LVL33:
 1105 002a 38BD     		pop	{r3, r4, r5, pc}
 1106              	.LVL34:
 1107              	.L43:
 446:Generated_Source\PSoC4/CyFlash.c ****             } else
 1108              		.loc 1 446 0
 1109 002c 0322     		mov	r2, #3
 1110 002e 0849     		ldr	r1, .L44
 1111 0030 0B68     		ldr	r3, [r1]
 1112 0032 9343     		bic	r3, r2
 1113 0034 023A     		sub	r2, r2, #2
 1114 0036 1343     		orr	r3, r2
 1115 0038 0B60     		str	r3, [r1]
 1116 003a F3E7     		b	.L39
 1117              	.L42:
 442:Generated_Source\PSoC4/CyFlash.c ****             } else
 1118              		.loc 1 442 0
 1119 003c 0321     		mov	r1, #3
 1120 003e 044A     		ldr	r2, .L44
 1121 0040 1368     		ldr	r3, [r2]
 1122 0042 8B43     		bic	r3, r1
 1123 0044 1360     		str	r3, [r2]
 1124 0046 EDE7     		b	.L39
 1125              	.L41:
ARM GAS  C:\Users\IYANG~1.DES\AppData\Local\Temp\ccPqxEDZ.s 			page 75


 458:Generated_Source\PSoC4/CyFlash.c ****         }
 1126              		.loc 1 458 0 discriminator 1
 1127 0048 0020     		mov	r0, #0
 1128 004a FFF7FEFF 		bl	CyHalt
 1129              	.LVL35:
 1130 004e E9E7     		b	.L39
 1131              	.L45:
 1132              		.align	2
 1133              	.L44:
 1134 0050 30001040 		.word	1074790448
 1135              		.cfi_endproc
 1136              	.LFE3:
 1137              		.size	CySysFlashSetWaitCycles, .-CySysFlashSetWaitCycles
 1138              		.section	.text.CySysSFlashWriteUserRow,"ax",%progbits
 1139              		.align	2
 1140              		.global	CySysSFlashWriteUserRow
 1141              		.code	16
 1142              		.thumb_func
 1143              		.type	CySysSFlashWriteUserRow, %function
 1144              	CySysSFlashWriteUserRow:
 1145              	.LFB4:
 490:Generated_Source\PSoC4/CyFlash.c ****     volatile uint32 retValue = CY_SYS_FLASH_SUCCESS;
 1146              		.loc 1 490 0
 1147              		.cfi_startproc
 1148              	.LVL36:
 491:Generated_Source\PSoC4/CyFlash.c ****     volatile uint32 clkCnfRetValue = CY_SYS_FLASH_SUCCESS;
 1149              		.loc 1 491 0
 1150 0000 0023     		mov	r3, #0
 490:Generated_Source\PSoC4/CyFlash.c ****     volatile uint32 retValue = CY_SYS_FLASH_SUCCESS;
 1151              		.loc 1 490 0
 1152 0002 30B5     		push	{r4, r5, lr}
 1153              		.cfi_def_cfa_offset 12
 1154              		.cfi_offset 4, -12
 1155              		.cfi_offset 5, -8
 1156              		.cfi_offset 14, -4
 1157 0004 A9B0     		sub	sp, sp, #164
 1158              		.cfi_def_cfa_offset 176
 491:Generated_Source\PSoC4/CyFlash.c ****     volatile uint32 clkCnfRetValue = CY_SYS_FLASH_SUCCESS;
 1159              		.loc 1 491 0
 1160 0006 0093     		str	r3, [sp]
 492:Generated_Source\PSoC4/CyFlash.c ****     volatile uint32 parameters[(CY_FLASH_SIZEOF_ROW + CY_FLASH_SRAM_ROM_DATA)/4u];
 1161              		.loc 1 492 0
 1162 0008 0193     		str	r3, [sp, #4]
 497:Generated_Source\PSoC4/CyFlash.c ****     {
 1163              		.loc 1 497 0
 1164 000a 0328     		cmp	r0, #3
 1165 000c 56D8     		bhi	.L47
 497:Generated_Source\PSoC4/CyFlash.c ****     {
 1166              		.loc 1 497 0 is_stmt 0 discriminator 1
 1167 000e 0029     		cmp	r1, #0
 1168 0010 54D0     		beq	.L47
 500:Generated_Source\PSoC4/CyFlash.c ****                          (uint32) (CY_FLASH_PAGE_LATCH_START_ADDR             << CY_FLASH_PARAM_ADD
 1169              		.loc 1 500 0 is_stmt 1
 1170 0012 524B     		ldr	r3, .L77
 1171 0014 041C     		mov	r4, r0
 1172 0016 0693     		str	r3, [sp, #24]
 504:Generated_Source\PSoC4/CyFlash.c **** 
ARM GAS  C:\Users\IYANG~1.DES\AppData\Local\Temp\ccPqxEDZ.s 			page 76


 1173              		.loc 1 504 0
 1174 0018 7F23     		mov	r3, #127
 506:Generated_Source\PSoC4/CyFlash.c ****         CY_FLASH_CPUSS_SYSARG_REG = (uint32) &parameters[0u];
 1175              		.loc 1 506 0
 1176 001a 08A8     		add	r0, sp, #32
 1177              	.LVL37:
 1178 001c 8022     		mov	r2, #128
 504:Generated_Source\PSoC4/CyFlash.c **** 
 1179              		.loc 1 504 0
 1180 001e 0793     		str	r3, [sp, #28]
 506:Generated_Source\PSoC4/CyFlash.c ****         CY_FLASH_CPUSS_SYSARG_REG = (uint32) &parameters[0u];
 1181              		.loc 1 506 0
 1182 0020 FFF7FEFF 		bl	memcpy
 1183              	.LVL38:
 507:Generated_Source\PSoC4/CyFlash.c ****         CY_FLASH_CPUSS_SYSREQ_REG = CY_FLASH_CPUSS_REQ_START | CY_FLASH_API_OPCODE_LOAD;
 1184              		.loc 1 507 0
 1185 0024 4E4B     		ldr	r3, .L77+4
 1186 0026 06AA     		add	r2, sp, #24
 1187 0028 1A60     		str	r2, [r3]
 508:Generated_Source\PSoC4/CyFlash.c ****         CY_NOP;
 1188              		.loc 1 508 0
 1189 002a 4E49     		ldr	r1, .L77+8
 1190 002c 4E4A     		ldr	r2, .L77+12
 1191 002e 1160     		str	r1, [r2]
 509:Generated_Source\PSoC4/CyFlash.c ****         retValue = CY_FLASH_API_RETURN;
 1192              		.loc 1 509 0
 1193              	@ 509 "Generated_Source\PSoC4\CyFlash.c" 1
 1194 0030 C046     		NOP
 1195              	
 1196              	@ 0 "" 2
 510:Generated_Source\PSoC4/CyFlash.c **** 
 1197              		.loc 1 510 0
 1198              		.code	16
 1199 0032 1A68     		ldr	r2, [r3]
 1200 0034 120F     		lsr	r2, r2, #28
 1201 0036 0F2A     		cmp	r2, #15
 1202 0038 45D0     		beq	.L70
 510:Generated_Source\PSoC4/CyFlash.c **** 
 1203              		.loc 1 510 0 is_stmt 0 discriminator 2
 1204 003a 1A68     		ldr	r2, [r3]
 1205 003c 120F     		lsr	r2, r2, #28
 1206 003e 0A2A     		cmp	r2, #10
 1207 0040 45D0     		beq	.L62
 510:Generated_Source\PSoC4/CyFlash.c **** 
 1208              		.loc 1 510 0 discriminator 4
 1209 0042 1B68     		ldr	r3, [r3]
 1210              	.L49:
 510:Generated_Source\PSoC4/CyFlash.c **** 
 1211              		.loc 1 510 0 discriminator 8
 1212 0044 0093     		str	r3, [sp]
 512:Generated_Source\PSoC4/CyFlash.c ****         {
 1213              		.loc 1 512 0 is_stmt 1 discriminator 8
 1214 0046 009B     		ldr	r3, [sp]
 1215 0048 002B     		cmp	r3, #0
 1216 004a 39D1     		bne	.L50
 520:Generated_Source\PSoC4/CyFlash.c **** 
 1217              		.loc 1 520 0
ARM GAS  C:\Users\IYANG~1.DES\AppData\Local\Temp\ccPqxEDZ.s 			page 77


 1218 004c FFF7FEFF 		bl	CyEnterCriticalSection
 1219              	.LVL39:
 1220              	.LBB30:
 1221              	.LBB31:
 625:Generated_Source\PSoC4/CyFlash.c ****                 (uint32) ((CY_FLASH_KEY_TWO(CY_FLASH_API_OPCODE_CLK_BACKUP) <<  CY_FLASH_PARAM_KEY_
 1222              		.loc 1 625 0
 1223 0050 464B     		ldr	r3, .L77+16
 628:Generated_Source\PSoC4/CyFlash.c ****             CY_FLASH_CPUSS_SYSARG_REG = (uint32) &parameters[0u];
 1224              		.loc 1 628 0
 1225 0052 474A     		ldr	r2, .L77+20
 625:Generated_Source\PSoC4/CyFlash.c ****                 (uint32) ((CY_FLASH_KEY_TWO(CY_FLASH_API_OPCODE_CLK_BACKUP) <<  CY_FLASH_PARAM_KEY_
 1226              		.loc 1 625 0
 1227 0054 0293     		str	r3, [sp, #8]
 629:Generated_Source\PSoC4/CyFlash.c ****             CY_FLASH_CPUSS_SYSREQ_REG = CY_FLASH_CPUSS_REQ_START | CY_FLASH_API_OPCODE_CLK_BACKUP;
 1228              		.loc 1 629 0
 1229 0056 424B     		ldr	r3, .L77+4
 625:Generated_Source\PSoC4/CyFlash.c ****                 (uint32) ((CY_FLASH_KEY_TWO(CY_FLASH_API_OPCODE_CLK_BACKUP) <<  CY_FLASH_PARAM_KEY_
 1230              		.loc 1 625 0
 1231 0058 02A9     		add	r1, sp, #8
 628:Generated_Source\PSoC4/CyFlash.c ****             CY_FLASH_CPUSS_SYSARG_REG = (uint32) &parameters[0u];
 1232              		.loc 1 628 0
 1233 005a 0432     		add	r2, r2, #4
 1234 005c 0392     		str	r2, [sp, #12]
 630:Generated_Source\PSoC4/CyFlash.c ****             CY_NOP;
 1235              		.loc 1 630 0
 1236 005e 454D     		ldr	r5, .L77+24
 629:Generated_Source\PSoC4/CyFlash.c ****             CY_FLASH_CPUSS_SYSREQ_REG = CY_FLASH_CPUSS_REQ_START | CY_FLASH_API_OPCODE_CLK_BACKUP;
 1237              		.loc 1 629 0
 1238 0060 1960     		str	r1, [r3]
 630:Generated_Source\PSoC4/CyFlash.c ****             CY_NOP;
 1239              		.loc 1 630 0
 1240 0062 4149     		ldr	r1, .L77+12
 1241 0064 0D60     		str	r5, [r1]
 631:Generated_Source\PSoC4/CyFlash.c ****             retValue = CY_FLASH_API_RETURN;
 1242              		.loc 1 631 0
 1243              	@ 631 "Generated_Source\PSoC4\CyFlash.c" 1
 1244 0066 C046     		NOP
 1245              	
 1246              	@ 0 "" 2
 632:Generated_Source\PSoC4/CyFlash.c ****         #endif /* (CY_IP_SPCIF_SYNCHRONOUS) */
 1247              		.loc 1 632 0
 1248              		.code	16
 1249 0068 1968     		ldr	r1, [r3]
 1250 006a 090F     		lsr	r1, r1, #28
 1251 006c 0F29     		cmp	r1, #15
 1252 006e 5FD0     		beq	.L71
 1253 0070 1968     		ldr	r1, [r3]
 1254 0072 090F     		lsr	r1, r1, #28
 1255 0074 0A29     		cmp	r1, #10
 1256 0076 59D0     		beq	.L63
 1257 0078 1B68     		ldr	r3, [r3]
 1258              	.LVL40:
 1259              	.L52:
 1260              	.LBE31:
 1261              	.LBE30:
 522:Generated_Source\PSoC4/CyFlash.c **** 
 1262              		.loc 1 522 0
ARM GAS  C:\Users\IYANG~1.DES\AppData\Local\Temp\ccPqxEDZ.s 			page 78


 1263 007a 0193     		str	r3, [sp, #4]
 525:Generated_Source\PSoC4/CyFlash.c ****             {
 1264              		.loc 1 525 0
 1265 007c 019B     		ldr	r3, [sp, #4]
 1266              	.LVL41:
 1267 007e 002B     		cmp	r3, #0
 1268 0080 42D0     		beq	.L72
 1269              	.LVL42:
 1270              	.L53:
 531:Generated_Source\PSoC4/CyFlash.c ****             {
 1271              		.loc 1 531 0
 1272 0082 009B     		ldr	r3, [sp]
 1273 0084 002B     		cmp	r3, #0
 1274 0086 13D1     		bne	.L56
 534:Generated_Source\PSoC4/CyFlash.c ****                 parameters[1u] = (uint32) rowNum;
 1275              		.loc 1 534 0
 1276 0088 3B4B     		ldr	r3, .L77+28
 537:Generated_Source\PSoC4/CyFlash.c ****                 CY_FLASH_CPUSS_SYSREQ_REG = CY_FLASH_CPUSS_REQ_START | CY_FLASH_API_OPCODE_WRITE_SF
 1277              		.loc 1 537 0
 1278 008a 06A9     		add	r1, sp, #24
 534:Generated_Source\PSoC4/CyFlash.c ****                 parameters[1u] = (uint32) rowNum;
 1279              		.loc 1 534 0
 1280 008c 0693     		str	r3, [sp, #24]
 537:Generated_Source\PSoC4/CyFlash.c ****                 CY_FLASH_CPUSS_SYSREQ_REG = CY_FLASH_CPUSS_REQ_START | CY_FLASH_API_OPCODE_WRITE_SF
 1281              		.loc 1 537 0
 1282 008e 344B     		ldr	r3, .L77+4
 535:Generated_Source\PSoC4/CyFlash.c **** 
 1283              		.loc 1 535 0
 1284 0090 0794     		str	r4, [sp, #28]
 537:Generated_Source\PSoC4/CyFlash.c ****                 CY_FLASH_CPUSS_SYSREQ_REG = CY_FLASH_CPUSS_REQ_START | CY_FLASH_API_OPCODE_WRITE_SF
 1285              		.loc 1 537 0
 1286 0092 1960     		str	r1, [r3]
 538:Generated_Source\PSoC4/CyFlash.c ****                 CY_NOP;
 1287              		.loc 1 538 0
 1288 0094 394C     		ldr	r4, .L77+32
 1289              	.LVL43:
 1290 0096 3449     		ldr	r1, .L77+12
 1291 0098 0C60     		str	r4, [r1]
 539:Generated_Source\PSoC4/CyFlash.c ****                 retValue = CY_FLASH_API_RETURN;
 1292              		.loc 1 539 0
 1293              	@ 539 "Generated_Source\PSoC4\CyFlash.c" 1
 1294 009a C046     		NOP
 1295              	
 1296              	@ 0 "" 2
 540:Generated_Source\PSoC4/CyFlash.c ****             }
 1297              		.loc 1 540 0
 1298              		.code	16
 1299 009c 1968     		ldr	r1, [r3]
 1300 009e 090F     		lsr	r1, r1, #28
 1301 00a0 0F29     		cmp	r1, #15
 1302 00a2 49D0     		beq	.L73
 540:Generated_Source\PSoC4/CyFlash.c ****             }
 1303              		.loc 1 540 0 is_stmt 0 discriminator 2
 1304 00a4 1968     		ldr	r1, [r3]
 1305 00a6 090F     		lsr	r1, r1, #28
 1306 00a8 0A29     		cmp	r1, #10
 1307 00aa 27D0     		beq	.L65
ARM GAS  C:\Users\IYANG~1.DES\AppData\Local\Temp\ccPqxEDZ.s 			page 79


 540:Generated_Source\PSoC4/CyFlash.c ****             }
 1308              		.loc 1 540 0 discriminator 4
 1309 00ac 1B68     		ldr	r3, [r3]
 1310 00ae 0093     		str	r3, [sp]
 1311              	.L56:
 543:Generated_Source\PSoC4/CyFlash.c ****             {
 1312              		.loc 1 543 0 is_stmt 1
 1313 00b0 019B     		ldr	r3, [sp, #4]
 1314 00b2 002B     		cmp	r3, #0
 1315 00b4 0DD0     		beq	.L74
 1316              	.L59:
 547:Generated_Source\PSoC4/CyFlash.c ****         }
 1317              		.loc 1 547 0
 1318 00b6 FFF7FEFF 		bl	CyExitCriticalSection
 1319              	.LVL44:
 1320 00ba 01E0     		b	.L50
 1321              	.LVL45:
 1322              	.L47:
 552:Generated_Source\PSoC4/CyFlash.c ****     }
 1323              		.loc 1 552 0
 1324 00bc 0423     		mov	r3, #4
 1325 00be 0093     		str	r3, [sp]
 1326              	.LVL46:
 1327              	.L50:
 555:Generated_Source\PSoC4/CyFlash.c **** }
 1328              		.loc 1 555 0
 1329 00c0 0098     		ldr	r0, [sp]
 556:Generated_Source\PSoC4/CyFlash.c **** #endif /* (CY_SFLASH_XTRA_ROWS) */
 1330              		.loc 1 556 0
 1331 00c2 29B0     		add	sp, sp, #164
 1332              		@ sp needed
 1333 00c4 30BD     		pop	{r4, r5, pc}
 1334              	.LVL47:
 1335              	.L70:
 510:Generated_Source\PSoC4/CyFlash.c **** 
 1336              		.loc 1 510 0 discriminator 1
 1337 00c6 1B68     		ldr	r3, [r3]
 1338 00c8 F032     		add	r2, r2, #240
 1339 00ca 1340     		and	r3, r2
 1340 00cc BAE7     		b	.L49
 1341              	.L62:
 510:Generated_Source\PSoC4/CyFlash.c **** 
 1342              		.loc 1 510 0 is_stmt 0
 1343 00ce 0023     		mov	r3, #0
 1344 00d0 B8E7     		b	.L49
 1345              	.LVL48:
 1346              	.L74:
 1347              	.LBB33:
 1348              	.LBB34:
 784:Generated_Source\PSoC4/CyFlash.c ****                 (uint32) ((CY_FLASH_KEY_TWO(CY_FLASH_API_OPCODE_CLK_RESTORE) <<  CY_FLASH_PARAM_KEY
 1349              		.loc 1 784 0 is_stmt 1
 1350 00d2 2B4B     		ldr	r3, .L77+36
 1351 00d4 04A9     		add	r1, sp, #16
 1352 00d6 0493     		str	r3, [sp, #16]
 788:Generated_Source\PSoC4/CyFlash.c ****             CY_FLASH_CPUSS_SYSREQ_REG = CY_FLASH_CPUSS_REQ_START | CY_FLASH_API_OPCODE_CLK_RESTORE;
 1353              		.loc 1 788 0
 1354 00d8 214B     		ldr	r3, .L77+4
ARM GAS  C:\Users\IYANG~1.DES\AppData\Local\Temp\ccPqxEDZ.s 			page 80


 787:Generated_Source\PSoC4/CyFlash.c ****             CY_FLASH_CPUSS_SYSARG_REG = (uint32) &parameters[0u];
 1355              		.loc 1 787 0
 1356 00da 0592     		str	r2, [sp, #20]
 788:Generated_Source\PSoC4/CyFlash.c ****             CY_FLASH_CPUSS_SYSREQ_REG = CY_FLASH_CPUSS_REQ_START | CY_FLASH_API_OPCODE_CLK_RESTORE;
 1357              		.loc 1 788 0
 1358 00dc 1960     		str	r1, [r3]
 789:Generated_Source\PSoC4/CyFlash.c ****             CY_NOP;
 1359              		.loc 1 789 0
 1360 00de 224A     		ldr	r2, .L77+12
 1361 00e0 2849     		ldr	r1, .L77+40
 1362 00e2 1160     		str	r1, [r2]
 790:Generated_Source\PSoC4/CyFlash.c ****             retValue = CY_FLASH_API_RETURN;
 1363              		.loc 1 790 0
 1364              	@ 790 "Generated_Source\PSoC4\CyFlash.c" 1
 1365 00e4 C046     		NOP
 1366              	
 1367              	@ 0 "" 2
 1368              		.loc 1 791 0
 1369              		.code	16
 1370 00e6 1A68     		ldr	r2, [r3]
 1371 00e8 120F     		lsr	r2, r2, #28
 1372 00ea 0F2A     		cmp	r2, #15
 1373 00ec 29D0     		beq	.L75
 1374 00ee 1A68     		ldr	r2, [r3]
 1375 00f0 120F     		lsr	r2, r2, #28
 1376 00f2 0A2A     		cmp	r2, #10
 1377 00f4 05D0     		beq	.L66
 1378 00f6 1B68     		ldr	r3, [r3]
 1379              	.LVL49:
 1380              	.LBE34:
 1381              	.LBE33:
 545:Generated_Source\PSoC4/CyFlash.c ****             }
 1382              		.loc 1 545 0
 1383 00f8 0193     		str	r3, [sp, #4]
 1384 00fa DCE7     		b	.L59
 1385              	.LVL50:
 1386              	.L65:
 540:Generated_Source\PSoC4/CyFlash.c ****             }
 1387              		.loc 1 540 0
 1388 00fc 0023     		mov	r3, #0
 1389 00fe 0093     		str	r3, [sp]
 1390 0100 D6E7     		b	.L56
 1391              	.LVL51:
 1392              	.L66:
 1393              	.LBB37:
 1394              	.LBB35:
 1395              		.loc 1 791 0
 1396 0102 0023     		mov	r3, #0
 1397              	.LVL52:
 1398              	.LBE35:
 1399              	.LBE37:
 545:Generated_Source\PSoC4/CyFlash.c ****             }
 1400              		.loc 1 545 0
 1401 0104 0193     		str	r3, [sp, #4]
 1402 0106 D6E7     		b	.L59
 1403              	.LVL53:
 1404              	.L72:
ARM GAS  C:\Users\IYANG~1.DES\AppData\Local\Temp\ccPqxEDZ.s 			page 81


 1405              	.LBB38:
 1406              	.LBB39:
 704:Generated_Source\PSoC4/CyFlash.c ****         (uint32) ((CY_FLASH_KEY_TWO(CY_FLASH_API_OPCODE_CLK_CONFIG) <<  CY_FLASH_PARAM_KEY_TWO_OFFS
 1407              		.loc 1 704 0
 1408 0108 154B     		ldr	r3, .L77+4
 1409 010a 1F49     		ldr	r1, .L77+44
 707:Generated_Source\PSoC4/CyFlash.c ****     CY_NOP;
 1410              		.loc 1 707 0
 1411 010c 1F4D     		ldr	r5, .L77+48
 704:Generated_Source\PSoC4/CyFlash.c ****         (uint32) ((CY_FLASH_KEY_TWO(CY_FLASH_API_OPCODE_CLK_CONFIG) <<  CY_FLASH_PARAM_KEY_TWO_OFFS
 1412              		.loc 1 704 0
 1413 010e 1960     		str	r1, [r3]
 1414              	.LVL54:
 707:Generated_Source\PSoC4/CyFlash.c ****     CY_NOP;
 1415              		.loc 1 707 0
 1416 0110 1549     		ldr	r1, .L77+12
 1417 0112 0D60     		str	r5, [r1]
 708:Generated_Source\PSoC4/CyFlash.c ****     retValue = CY_FLASH_API_RETURN;
 1418              		.loc 1 708 0
 1419              	@ 708 "Generated_Source\PSoC4\CyFlash.c" 1
 1420 0114 C046     		NOP
 1421              	
 1422              	@ 0 "" 2
 709:Generated_Source\PSoC4/CyFlash.c **** 
 1423              		.loc 1 709 0
 1424              		.code	16
 1425 0116 1968     		ldr	r1, [r3]
 1426 0118 090F     		lsr	r1, r1, #28
 1427 011a 0F29     		cmp	r1, #15
 1428 011c 19D0     		beq	.L76
 1429 011e 1968     		ldr	r1, [r3]
 1430 0120 090F     		lsr	r1, r1, #28
 1431 0122 0A29     		cmp	r1, #10
 1432 0124 12D0     		beq	.L64
 1433 0126 1B68     		ldr	r3, [r3]
 1434              	.LVL55:
 1435              	.LBE39:
 1436              	.LBE38:
 527:Generated_Source\PSoC4/CyFlash.c ****             }
 1437              		.loc 1 527 0
 1438 0128 0093     		str	r3, [sp]
 1439 012a AAE7     		b	.L53
 1440              	.LVL56:
 1441              	.L63:
 1442              	.LBB42:
 1443              	.LBB32:
 632:Generated_Source\PSoC4/CyFlash.c ****         #endif /* (CY_IP_SPCIF_SYNCHRONOUS) */
 1444              		.loc 1 632 0
 1445 012c 0023     		mov	r3, #0
 1446 012e A4E7     		b	.L52
 1447              	.L71:
 1448 0130 1B68     		ldr	r3, [r3]
 1449 0132 F031     		add	r1, r1, #240
 1450 0134 0B40     		and	r3, r1
 1451 0136 A0E7     		b	.L52
 1452              	.LVL57:
 1453              	.L73:
ARM GAS  C:\Users\IYANG~1.DES\AppData\Local\Temp\ccPqxEDZ.s 			page 82


 1454              	.LBE32:
 1455              	.LBE42:
 540:Generated_Source\PSoC4/CyFlash.c ****             }
 1456              		.loc 1 540 0 discriminator 1
 1457 0138 1B68     		ldr	r3, [r3]
 1458 013a F031     		add	r1, r1, #240
 1459 013c 0B40     		and	r3, r1
 1460 013e 0093     		str	r3, [sp]
 1461 0140 B6E7     		b	.L56
 1462              	.LVL58:
 1463              	.L75:
 1464              	.LBB43:
 1465              	.LBB36:
 1466              		.loc 1 791 0
 1467 0142 1B68     		ldr	r3, [r3]
 1468 0144 F032     		add	r2, r2, #240
 1469 0146 1340     		and	r3, r2
 1470              	.LVL59:
 1471              	.LBE36:
 1472              	.LBE43:
 545:Generated_Source\PSoC4/CyFlash.c ****             }
 1473              		.loc 1 545 0
 1474 0148 0193     		str	r3, [sp, #4]
 1475 014a B4E7     		b	.L59
 1476              	.LVL60:
 1477              	.L64:
 1478              	.LBB44:
 1479              	.LBB40:
 709:Generated_Source\PSoC4/CyFlash.c **** 
 1480              		.loc 1 709 0
 1481 014c 0023     		mov	r3, #0
 1482              	.LVL61:
 1483              	.LBE40:
 1484              	.LBE44:
 527:Generated_Source\PSoC4/CyFlash.c ****             }
 1485              		.loc 1 527 0
 1486 014e 0093     		str	r3, [sp]
 1487 0150 97E7     		b	.L53
 1488              	.LVL62:
 1489              	.L76:
 1490              	.LBB45:
 1491              	.LBB41:
 709:Generated_Source\PSoC4/CyFlash.c **** 
 1492              		.loc 1 709 0
 1493 0152 1B68     		ldr	r3, [r3]
 1494 0154 F031     		add	r1, r1, #240
 1495 0156 0B40     		and	r3, r1
 1496              	.LVL63:
 1497              	.LBE41:
 1498              	.LBE45:
 527:Generated_Source\PSoC4/CyFlash.c ****             }
 1499              		.loc 1 527 0
 1500 0158 0093     		str	r3, [sp]
 1501 015a 92E7     		b	.L53
 1502              	.L78:
 1503              		.align	2
 1504              	.L77:
ARM GAS  C:\Users\IYANG~1.DES\AppData\Local\Temp\ccPqxEDZ.s 			page 83


 1505 015c B6D70000 		.word	55222
 1506 0160 08001040 		.word	1074790408
 1507 0164 04000080 		.word	-2147483644
 1508 0168 04001040 		.word	1074790404
 1509 016c B6E90000 		.word	59830
 1510 0170 00000000 		.word	.LANCHOR0
 1511 0174 16000080 		.word	-2147483626
 1512 0178 B6EB0000 		.word	60342
 1513 017c 18000080 		.word	-2147483624
 1514 0180 B6EA0000 		.word	60086
 1515 0184 17000080 		.word	-2147483625
 1516 0188 B6E80000 		.word	59574
 1517 018c 15000080 		.word	-2147483627
 1518              		.cfi_endproc
 1519              	.LFE4:
 1520              		.size	CySysSFlashWriteUserRow, .-CySysSFlashWriteUserRow
 1521              		.bss
 1522              		.align	2
 1523              		.set	.LANCHOR0,. + 0
 1524              		.type	cySysFlashBackup, %object
 1525              		.size	cySysFlashBackup, 20
 1526              	cySysFlashBackup:
 1527 0000 00000000 		.space	20
 1527      00000000 
 1527      00000000 
 1527      00000000 
 1527      00000000 
 1528              		.text
 1529              	.Letext0:
 1530              		.file 2 "Generated_Source\\PSoC4\\cytypes.h"
 1531              		.file 3 "Generated_Source\\PSoC4\\CyFlash.h"
 1532              		.file 4 "Generated_Source\\PSoC4\\CyLib.h"
 1533              		.section	.debug_info,"",%progbits
 1534              	.Ldebug_info0:
 1535 0000 C9040000 		.4byte	0x4c9
 1536 0004 0400     		.2byte	0x4
 1537 0006 00000000 		.4byte	.Ldebug_abbrev0
 1538 000a 04       		.byte	0x4
 1539 000b 01       		.uleb128 0x1
 1540 000c D7010000 		.4byte	.LASF36
 1541 0010 01       		.byte	0x1
 1542 0011 67010000 		.4byte	.LASF37
 1543 0015 82000000 		.4byte	.LASF38
 1544 0019 B0000000 		.4byte	.Ldebug_ranges0+0xb0
 1545 001d 00000000 		.4byte	0
 1546 0021 00000000 		.4byte	.Ldebug_line0
 1547 0025 02       		.uleb128 0x2
 1548 0026 01       		.byte	0x1
 1549 0027 06       		.byte	0x6
 1550 0028 FE020000 		.4byte	.LASF0
 1551 002c 02       		.uleb128 0x2
 1552 002d 01       		.byte	0x1
 1553 002e 08       		.byte	0x8
 1554 002f E7000000 		.4byte	.LASF1
 1555 0033 02       		.uleb128 0x2
 1556 0034 02       		.byte	0x2
 1557 0035 05       		.byte	0x5
ARM GAS  C:\Users\IYANG~1.DES\AppData\Local\Temp\ccPqxEDZ.s 			page 84


 1558 0036 26010000 		.4byte	.LASF2
 1559 003a 02       		.uleb128 0x2
 1560 003b 02       		.byte	0x2
 1561 003c 07       		.byte	0x7
 1562 003d 62000000 		.4byte	.LASF3
 1563 0041 02       		.uleb128 0x2
 1564 0042 04       		.byte	0x4
 1565 0043 05       		.byte	0x5
 1566 0044 F0020000 		.4byte	.LASF4
 1567 0048 02       		.uleb128 0x2
 1568 0049 04       		.byte	0x4
 1569 004a 07       		.byte	0x7
 1570 004b 55010000 		.4byte	.LASF5
 1571 004f 02       		.uleb128 0x2
 1572 0050 08       		.byte	0x8
 1573 0051 05       		.byte	0x5
 1574 0052 BD010000 		.4byte	.LASF6
 1575 0056 02       		.uleb128 0x2
 1576 0057 08       		.byte	0x8
 1577 0058 07       		.byte	0x7
 1578 0059 D0000000 		.4byte	.LASF7
 1579 005d 03       		.uleb128 0x3
 1580 005e 04       		.byte	0x4
 1581 005f 05       		.byte	0x5
 1582 0060 696E7400 		.ascii	"int\000"
 1583 0064 02       		.uleb128 0x2
 1584 0065 04       		.byte	0x4
 1585 0066 07       		.byte	0x7
 1586 0067 75000000 		.4byte	.LASF8
 1587 006b 04       		.uleb128 0x4
 1588 006c 19010000 		.4byte	.LASF9
 1589 0070 02       		.byte	0x2
 1590 0071 9801     		.2byte	0x198
 1591 0073 2C000000 		.4byte	0x2c
 1592 0077 04       		.uleb128 0x4
 1593 0078 30010000 		.4byte	.LASF10
 1594 007c 02       		.byte	0x2
 1595 007d 9901     		.2byte	0x199
 1596 007f 3A000000 		.4byte	0x3a
 1597 0083 04       		.uleb128 0x4
 1598 0084 37010000 		.4byte	.LASF11
 1599 0088 02       		.byte	0x2
 1600 0089 9A01     		.2byte	0x19a
 1601 008b 48000000 		.4byte	0x48
 1602 008f 02       		.uleb128 0x2
 1603 0090 04       		.byte	0x4
 1604 0091 04       		.byte	0x4
 1605 0092 BF000000 		.4byte	.LASF12
 1606 0096 02       		.uleb128 0x2
 1607 0097 08       		.byte	0x8
 1608 0098 04       		.byte	0x4
 1609 0099 1F010000 		.4byte	.LASF13
 1610 009d 02       		.uleb128 0x2
 1611 009e 01       		.byte	0x1
 1612 009f 08       		.byte	0x8
 1613 00a0 F9020000 		.4byte	.LASF14
 1614 00a4 04       		.uleb128 0x4
ARM GAS  C:\Users\IYANG~1.DES\AppData\Local\Temp\ccPqxEDZ.s 			page 85


 1615 00a5 00000000 		.4byte	.LASF15
 1616 00a9 02       		.byte	0x2
 1617 00aa 3A02     		.2byte	0x23a
 1618 00ac 48000000 		.4byte	0x48
 1619 00b0 04       		.uleb128 0x4
 1620 00b1 09000000 		.4byte	.LASF16
 1621 00b5 02       		.byte	0x2
 1622 00b6 4402     		.2byte	0x244
 1623 00b8 BC000000 		.4byte	0xbc
 1624 00bc 05       		.uleb128 0x5
 1625 00bd 83000000 		.4byte	0x83
 1626 00c1 02       		.uleb128 0x2
 1627 00c2 04       		.byte	0x4
 1628 00c3 07       		.byte	0x7
 1629 00c4 B4010000 		.4byte	.LASF17
 1630 00c8 06       		.uleb128 0x6
 1631 00c9 04       		.byte	0x4
 1632 00ca 07       		.uleb128 0x7
 1633 00cb 2E000000 		.4byte	.LASF39
 1634 00cf 14       		.byte	0x14
 1635 00d0 03       		.byte	0x3
 1636 00d1 D7       		.byte	0xd7
 1637 00d2 EF000000 		.4byte	0xef
 1638 00d6 08       		.uleb128 0x8
 1639 00d7 C5000000 		.4byte	.LASF18
 1640 00db 03       		.byte	0x3
 1641 00dc E3       		.byte	0xe3
 1642 00dd 83000000 		.4byte	0x83
 1643 00e1 00       		.byte	0
 1644 00e2 08       		.uleb128 0x8
 1645 00e3 7E020000 		.4byte	.LASF19
 1646 00e7 03       		.byte	0x3
 1647 00e8 E7       		.byte	0xe7
 1648 00e9 EF000000 		.4byte	0xef
 1649 00ed 04       		.byte	0x4
 1650 00ee 00       		.byte	0
 1651 00ef 09       		.uleb128 0x9
 1652 00f0 83000000 		.4byte	0x83
 1653 00f4 FF000000 		.4byte	0xff
 1654 00f8 0A       		.uleb128 0xa
 1655 00f9 C1000000 		.4byte	0xc1
 1656 00fd 03       		.byte	0x3
 1657 00fe 00       		.byte	0
 1658 00ff 0B       		.uleb128 0xb
 1659 0100 CF020000 		.4byte	.LASF20
 1660 0104 03       		.byte	0x3
 1661 0105 ED       		.byte	0xed
 1662 0106 CA000000 		.4byte	0xca
 1663 010a 0C       		.uleb128 0xc
 1664 010b B9020000 		.4byte	.LASF23
 1665 010f 01       		.byte	0x1
 1666 0110 3902     		.2byte	0x239
 1667 0112 A4000000 		.4byte	0xa4
 1668 0116 01       		.byte	0x1
 1669 0117 34010000 		.4byte	0x134
 1670 011b 0D       		.uleb128 0xd
 1671 011c 0F000000 		.4byte	.LASF21
ARM GAS  C:\Users\IYANG~1.DES\AppData\Local\Temp\ccPqxEDZ.s 			page 86


 1672 0120 01       		.byte	0x1
 1673 0121 3B02     		.2byte	0x23b
 1674 0123 A4000000 		.4byte	0xa4
 1675 0127 0D       		.uleb128 0xd
 1676 0128 FD000000 		.4byte	.LASF22
 1677 012c 01       		.byte	0x1
 1678 012d 3F02     		.2byte	0x23f
 1679 012f 44010000 		.4byte	0x144
 1680 0133 00       		.byte	0
 1681 0134 09       		.uleb128 0x9
 1682 0135 83000000 		.4byte	0x83
 1683 0139 44010000 		.4byte	0x144
 1684 013d 0A       		.uleb128 0xa
 1685 013e C1000000 		.4byte	0xc1
 1686 0142 01       		.byte	0x1
 1687 0143 00       		.byte	0
 1688 0144 05       		.uleb128 0x5
 1689 0145 34010000 		.4byte	0x134
 1690 0149 0C       		.uleb128 0xc
 1691 014a 8C020000 		.4byte	.LASF24
 1692 014e 01       		.byte	0x1
 1693 014f 8D02     		.2byte	0x28d
 1694 0151 A4000000 		.4byte	0xa4
 1695 0155 01       		.byte	0x1
 1696 0156 67010000 		.4byte	0x167
 1697 015a 0D       		.uleb128 0xd
 1698 015b 0F000000 		.4byte	.LASF21
 1699 015f 01       		.byte	0x1
 1700 0160 8F02     		.2byte	0x28f
 1701 0162 A4000000 		.4byte	0xa4
 1702 0166 00       		.byte	0
 1703 0167 0C       		.uleb128 0xc
 1704 0168 A2020000 		.4byte	.LASF25
 1705 016c 01       		.byte	0x1
 1706 016d D702     		.2byte	0x2d7
 1707 016f A4000000 		.4byte	0xa4
 1708 0173 01       		.byte	0x1
 1709 0174 91010000 		.4byte	0x191
 1710 0178 0D       		.uleb128 0xd
 1711 0179 0F000000 		.4byte	.LASF21
 1712 017d 01       		.byte	0x1
 1713 017e D902     		.2byte	0x2d9
 1714 0180 A4000000 		.4byte	0xa4
 1715 0184 0D       		.uleb128 0xd
 1716 0185 FD000000 		.4byte	.LASF22
 1717 0189 01       		.byte	0x1
 1718 018a DD02     		.2byte	0x2dd
 1719 018c 91010000 		.4byte	0x191
 1720 0190 00       		.byte	0
 1721 0191 05       		.uleb128 0x5
 1722 0192 34010000 		.4byte	0x134
 1723 0196 0E       		.uleb128 0xe
 1724 0197 0A030000 		.4byte	.LASF31
 1725 019b 01       		.byte	0x1
 1726 019c 50       		.byte	0x50
 1727 019d 83000000 		.4byte	0x83
 1728 01a1 00000000 		.4byte	.LFB2
ARM GAS  C:\Users\IYANG~1.DES\AppData\Local\Temp\ccPqxEDZ.s 			page 87


 1729 01a5 B4010000 		.4byte	.LFE2-.LFB2
 1730 01a9 01       		.uleb128 0x1
 1731 01aa 9C       		.byte	0x9c
 1732 01ab B9020000 		.4byte	0x2b9
 1733 01af 0F       		.uleb128 0xf
 1734 01b0 18000000 		.4byte	.LASF26
 1735 01b4 01       		.byte	0x1
 1736 01b5 50       		.byte	0x50
 1737 01b6 83000000 		.4byte	0x83
 1738 01ba 00000000 		.4byte	.LLST0
 1739 01be 0F       		.uleb128 0xf
 1740 01bf F5000000 		.4byte	.LASF27
 1741 01c3 01       		.byte	0x1
 1742 01c4 50       		.byte	0x50
 1743 01c5 B9020000 		.4byte	0x2b9
 1744 01c9 82000000 		.4byte	.LLST1
 1745 01cd 10       		.uleb128 0x10
 1746 01ce 0F000000 		.4byte	.LASF21
 1747 01d2 01       		.byte	0x1
 1748 01d3 52       		.byte	0x52
 1749 01d4 BC000000 		.4byte	0xbc
 1750 01d8 03       		.uleb128 0x3
 1751 01d9 91       		.byte	0x91
 1752 01da D07E     		.sleb128 -176
 1753 01dc 10       		.uleb128 0x10
 1754 01dd 1F000000 		.4byte	.LASF28
 1755 01e1 01       		.byte	0x1
 1756 01e2 53       		.byte	0x53
 1757 01e3 BC000000 		.4byte	0xbc
 1758 01e7 03       		.uleb128 0x3
 1759 01e8 91       		.byte	0x91
 1760 01e9 D47E     		.sleb128 -172
 1761 01eb 10       		.uleb128 0x10
 1762 01ec FD000000 		.4byte	.LASF22
 1763 01f0 01       		.byte	0x1
 1764 01f1 54       		.byte	0x54
 1765 01f2 D4020000 		.4byte	0x2d4
 1766 01f6 03       		.uleb128 0x3
 1767 01f7 91       		.byte	0x91
 1768 01f8 E87E     		.sleb128 -152
 1769 01fa 11       		.uleb128 0x11
 1770 01fb 9E010000 		.4byte	.LASF29
 1771 01ff 01       		.byte	0x1
 1772 0200 55       		.byte	0x55
 1773 0201 6B000000 		.4byte	0x6b
 1774 0205 BC000000 		.4byte	.LLST2
 1775 0209 12       		.uleb128 0x12
 1776 020a 0A010000 		.4byte	0x10a
 1777 020e 58000000 		.4byte	.LBB8
 1778 0212 00000000 		.4byte	.Ldebug_ranges0+0
 1779 0216 01       		.byte	0x1
 1780 0217 90       		.byte	0x90
 1781 0218 35020000 		.4byte	0x235
 1782 021c 13       		.uleb128 0x13
 1783 021d 00000000 		.4byte	.Ldebug_ranges0+0
 1784 0221 14       		.uleb128 0x14
 1785 0222 1B010000 		.4byte	0x11b
ARM GAS  C:\Users\IYANG~1.DES\AppData\Local\Temp\ccPqxEDZ.s 			page 88


 1786 0226 DA000000 		.4byte	.LLST3
 1787 022a 15       		.uleb128 0x15
 1788 022b 27010000 		.4byte	0x127
 1789 022f 03       		.uleb128 0x3
 1790 0230 91       		.byte	0x91
 1791 0231 D87E     		.sleb128 -168
 1792 0233 00       		.byte	0
 1793 0234 00       		.byte	0
 1794 0235 12       		.uleb128 0x12
 1795 0236 67010000 		.4byte	0x167
 1796 023a E8000000 		.4byte	.LBB11
 1797 023e 18000000 		.4byte	.Ldebug_ranges0+0x18
 1798 0242 01       		.byte	0x1
 1799 0243 CB       		.byte	0xcb
 1800 0244 61020000 		.4byte	0x261
 1801 0248 13       		.uleb128 0x13
 1802 0249 18000000 		.4byte	.Ldebug_ranges0+0x18
 1803 024d 14       		.uleb128 0x14
 1804 024e 78010000 		.4byte	0x178
 1805 0252 1F010000 		.4byte	.LLST4
 1806 0256 15       		.uleb128 0x15
 1807 0257 84010000 		.4byte	0x184
 1808 025b 03       		.uleb128 0x3
 1809 025c 91       		.byte	0x91
 1810 025d E07E     		.sleb128 -160
 1811 025f 00       		.byte	0
 1812 0260 00       		.byte	0
 1813 0261 12       		.uleb128 0x12
 1814 0262 49010000 		.4byte	0x149
 1815 0266 26010000 		.4byte	.LBB16
 1816 026a 38000000 		.4byte	.Ldebug_ranges0+0x38
 1817 026e 01       		.byte	0x1
 1818 026f 95       		.byte	0x95
 1819 0270 84020000 		.4byte	0x284
 1820 0274 13       		.uleb128 0x13
 1821 0275 38000000 		.4byte	.Ldebug_ranges0+0x38
 1822 0279 14       		.uleb128 0x14
 1823 027a 5A010000 		.4byte	0x15a
 1824 027e 6C010000 		.4byte	.LLST5
 1825 0282 00       		.byte	0
 1826 0283 00       		.byte	0
 1827 0284 16       		.uleb128 0x16
 1828 0285 1E000000 		.4byte	.LVL2
 1829 0289 7F040000 		.4byte	0x47f
 1830 028d A6020000 		.4byte	0x2a6
 1831 0291 17       		.uleb128 0x17
 1832 0292 01       		.uleb128 0x1
 1833 0293 52       		.byte	0x52
 1834 0294 02       		.uleb128 0x2
 1835 0295 08       		.byte	0x8
 1836 0296 80       		.byte	0x80
 1837 0297 17       		.uleb128 0x17
 1838 0298 01       		.uleb128 0x1
 1839 0299 51       		.byte	0x51
 1840 029a 03       		.uleb128 0x3
 1841 029b F3       		.byte	0xf3
 1842 029c 01       		.uleb128 0x1
ARM GAS  C:\Users\IYANG~1.DES\AppData\Local\Temp\ccPqxEDZ.s 			page 89


 1843 029d 51       		.byte	0x51
 1844 029e 17       		.uleb128 0x17
 1845 029f 01       		.uleb128 0x1
 1846 02a0 50       		.byte	0x50
 1847 02a1 03       		.uleb128 0x3
 1848 02a2 91       		.byte	0x91
 1849 02a3 F07E     		.sleb128 -144
 1850 02a5 00       		.byte	0
 1851 02a6 18       		.uleb128 0x18
 1852 02a7 58000000 		.4byte	.LVL3
 1853 02ab A3040000 		.4byte	0x4a3
 1854 02af 18       		.uleb128 0x18
 1855 02b0 CC000000 		.4byte	.LVL8
 1856 02b4 AE040000 		.4byte	0x4ae
 1857 02b8 00       		.byte	0
 1858 02b9 19       		.uleb128 0x19
 1859 02ba 04       		.byte	0x4
 1860 02bb BF020000 		.4byte	0x2bf
 1861 02bf 1A       		.uleb128 0x1a
 1862 02c0 6B000000 		.4byte	0x6b
 1863 02c4 09       		.uleb128 0x9
 1864 02c5 83000000 		.4byte	0x83
 1865 02c9 D4020000 		.4byte	0x2d4
 1866 02cd 0A       		.uleb128 0xa
 1867 02ce C1000000 		.4byte	0xc1
 1868 02d2 21       		.byte	0x21
 1869 02d3 00       		.byte	0
 1870 02d4 05       		.uleb128 0x5
 1871 02d5 C4020000 		.4byte	0x2c4
 1872 02d9 1B       		.uleb128 0x1b
 1873 02da 1D030000 		.4byte	.LASF40
 1874 02de 01       		.byte	0x1
 1875 02df A501     		.2byte	0x1a5
 1876 02e1 00000000 		.4byte	.LFB3
 1877 02e5 54000000 		.4byte	.LFE3-.LFB3
 1878 02e9 01       		.uleb128 0x1
 1879 02ea 9C       		.byte	0x9c
 1880 02eb 3C030000 		.4byte	0x33c
 1881 02ef 1C       		.uleb128 0x1c
 1882 02f0 D2010000 		.4byte	.LASF30
 1883 02f4 01       		.byte	0x1
 1884 02f5 A501     		.2byte	0x1a5
 1885 02f7 83000000 		.4byte	0x83
 1886 02fb B9010000 		.4byte	.LLST6
 1887 02ff 1D       		.uleb128 0x1d
 1888 0300 9E010000 		.4byte	.LASF29
 1889 0304 01       		.byte	0x1
 1890 0305 A701     		.2byte	0x1a7
 1891 0307 6B000000 		.4byte	0x6b
 1892 030b F0010000 		.4byte	.LLST7
 1893 030f 18       		.uleb128 0x18
 1894 0310 08000000 		.4byte	.LVL29
 1895 0314 A3040000 		.4byte	0x4a3
 1896 0318 16       		.uleb128 0x16
 1897 0319 2A000000 		.4byte	.LVL31
 1898 031d AE040000 		.4byte	0x4ae
 1899 0321 2C030000 		.4byte	0x32c
ARM GAS  C:\Users\IYANG~1.DES\AppData\Local\Temp\ccPqxEDZ.s 			page 90


 1900 0325 17       		.uleb128 0x17
 1901 0326 01       		.uleb128 0x1
 1902 0327 50       		.byte	0x50
 1903 0328 02       		.uleb128 0x2
 1904 0329 75       		.byte	0x75
 1905 032a 00       		.sleb128 0
 1906 032b 00       		.byte	0
 1907 032c 1E       		.uleb128 0x1e
 1908 032d 4E000000 		.4byte	.LVL35
 1909 0331 BF040000 		.4byte	0x4bf
 1910 0335 17       		.uleb128 0x17
 1911 0336 01       		.uleb128 0x1
 1912 0337 50       		.byte	0x50
 1913 0338 01       		.uleb128 0x1
 1914 0339 30       		.byte	0x30
 1915 033a 00       		.byte	0
 1916 033b 00       		.byte	0
 1917 033c 1F       		.uleb128 0x1f
 1918 033d 4A000000 		.4byte	.LASF32
 1919 0341 01       		.byte	0x1
 1920 0342 E901     		.2byte	0x1e9
 1921 0344 83000000 		.4byte	0x83
 1922 0348 00000000 		.4byte	.LFB4
 1923 034c 90010000 		.4byte	.LFE4-.LFB4
 1924 0350 01       		.uleb128 0x1
 1925 0351 9C       		.byte	0x9c
 1926 0352 69040000 		.4byte	0x469
 1927 0356 1C       		.uleb128 0x1c
 1928 0357 18000000 		.4byte	.LASF26
 1929 035b 01       		.byte	0x1
 1930 035c E901     		.2byte	0x1e9
 1931 035e 83000000 		.4byte	0x83
 1932 0362 0E020000 		.4byte	.LLST8
 1933 0366 1C       		.uleb128 0x1c
 1934 0367 F5000000 		.4byte	.LASF27
 1935 036b 01       		.byte	0x1
 1936 036c E901     		.2byte	0x1e9
 1937 036e B9020000 		.4byte	0x2b9
 1938 0372 90020000 		.4byte	.LLST9
 1939 0376 20       		.uleb128 0x20
 1940 0377 0F000000 		.4byte	.LASF21
 1941 037b 01       		.byte	0x1
 1942 037c EB01     		.2byte	0x1eb
 1943 037e BC000000 		.4byte	0xbc
 1944 0382 03       		.uleb128 0x3
 1945 0383 91       		.byte	0x91
 1946 0384 D07E     		.sleb128 -176
 1947 0386 20       		.uleb128 0x20
 1948 0387 1F000000 		.4byte	.LASF28
 1949 038b 01       		.byte	0x1
 1950 038c EC01     		.2byte	0x1ec
 1951 038e BC000000 		.4byte	0xbc
 1952 0392 03       		.uleb128 0x3
 1953 0393 91       		.byte	0x91
 1954 0394 D47E     		.sleb128 -172
 1955 0396 20       		.uleb128 0x20
 1956 0397 FD000000 		.4byte	.LASF22
ARM GAS  C:\Users\IYANG~1.DES\AppData\Local\Temp\ccPqxEDZ.s 			page 91


 1957 039b 01       		.byte	0x1
 1958 039c ED01     		.2byte	0x1ed
 1959 039e 69040000 		.4byte	0x469
 1960 03a2 03       		.uleb128 0x3
 1961 03a3 91       		.byte	0x91
 1962 03a4 E87E     		.sleb128 -152
 1963 03a6 1D       		.uleb128 0x1d
 1964 03a7 9E010000 		.4byte	.LASF29
 1965 03ab 01       		.byte	0x1
 1966 03ac EE01     		.2byte	0x1ee
 1967 03ae 6B000000 		.4byte	0x6b
 1968 03b2 CA020000 		.4byte	.LLST10
 1969 03b6 21       		.uleb128 0x21
 1970 03b7 0A010000 		.4byte	0x10a
 1971 03bb 50000000 		.4byte	.LBB30
 1972 03bf 58000000 		.4byte	.Ldebug_ranges0+0x58
 1973 03c3 01       		.byte	0x1
 1974 03c4 0A02     		.2byte	0x20a
 1975 03c6 E3030000 		.4byte	0x3e3
 1976 03ca 13       		.uleb128 0x13
 1977 03cb 58000000 		.4byte	.Ldebug_ranges0+0x58
 1978 03cf 14       		.uleb128 0x14
 1979 03d0 1B010000 		.4byte	0x11b
 1980 03d4 E8020000 		.4byte	.LLST11
 1981 03d8 15       		.uleb128 0x15
 1982 03d9 27010000 		.4byte	0x127
 1983 03dd 03       		.uleb128 0x3
 1984 03de 91       		.byte	0x91
 1985 03df D87E     		.sleb128 -168
 1986 03e1 00       		.byte	0
 1987 03e2 00       		.byte	0
 1988 03e3 21       		.uleb128 0x21
 1989 03e4 67010000 		.4byte	0x167
 1990 03e8 D2000000 		.4byte	.LBB33
 1991 03ec 70000000 		.4byte	.Ldebug_ranges0+0x70
 1992 03f0 01       		.byte	0x1
 1993 03f1 2102     		.2byte	0x221
 1994 03f3 10040000 		.4byte	0x410
 1995 03f7 13       		.uleb128 0x13
 1996 03f8 70000000 		.4byte	.Ldebug_ranges0+0x70
 1997 03fc 14       		.uleb128 0x14
 1998 03fd 78010000 		.4byte	0x178
 1999 0401 2D030000 		.4byte	.LLST12
 2000 0405 15       		.uleb128 0x15
 2001 0406 84010000 		.4byte	0x184
 2002 040a 03       		.uleb128 0x3
 2003 040b 91       		.byte	0x91
 2004 040c E07E     		.sleb128 -160
 2005 040e 00       		.byte	0
 2006 040f 00       		.byte	0
 2007 0410 21       		.uleb128 0x21
 2008 0411 49010000 		.4byte	0x149
 2009 0415 08010000 		.4byte	.LBB38
 2010 0419 90000000 		.4byte	.Ldebug_ranges0+0x90
 2011 041d 01       		.byte	0x1
 2012 041e 0F02     		.2byte	0x20f
 2013 0420 34040000 		.4byte	0x434
ARM GAS  C:\Users\IYANG~1.DES\AppData\Local\Temp\ccPqxEDZ.s 			page 92


 2014 0424 13       		.uleb128 0x13
 2015 0425 90000000 		.4byte	.Ldebug_ranges0+0x90
 2016 0429 14       		.uleb128 0x14
 2017 042a 5A010000 		.4byte	0x15a
 2018 042e 7A030000 		.4byte	.LLST13
 2019 0432 00       		.byte	0
 2020 0433 00       		.byte	0
 2021 0434 16       		.uleb128 0x16
 2022 0435 24000000 		.4byte	.LVL38
 2023 0439 7F040000 		.4byte	0x47f
 2024 043d 56040000 		.4byte	0x456
 2025 0441 17       		.uleb128 0x17
 2026 0442 01       		.uleb128 0x1
 2027 0443 52       		.byte	0x52
 2028 0444 02       		.uleb128 0x2
 2029 0445 08       		.byte	0x8
 2030 0446 80       		.byte	0x80
 2031 0447 17       		.uleb128 0x17
 2032 0448 01       		.uleb128 0x1
 2033 0449 51       		.byte	0x51
 2034 044a 03       		.uleb128 0x3
 2035 044b F3       		.byte	0xf3
 2036 044c 01       		.uleb128 0x1
 2037 044d 51       		.byte	0x51
 2038 044e 17       		.uleb128 0x17
 2039 044f 01       		.uleb128 0x1
 2040 0450 50       		.byte	0x50
 2041 0451 03       		.uleb128 0x3
 2042 0452 91       		.byte	0x91
 2043 0453 F07E     		.sleb128 -144
 2044 0455 00       		.byte	0
 2045 0456 18       		.uleb128 0x18
 2046 0457 50000000 		.4byte	.LVL39
 2047 045b A3040000 		.4byte	0x4a3
 2048 045f 18       		.uleb128 0x18
 2049 0460 BA000000 		.4byte	.LVL44
 2050 0464 AE040000 		.4byte	0x4ae
 2051 0468 00       		.byte	0
 2052 0469 05       		.uleb128 0x5
 2053 046a C4020000 		.4byte	0x2c4
 2054 046e 10       		.uleb128 0x10
 2055 046f 08010000 		.4byte	.LASF33
 2056 0473 01       		.byte	0x1
 2057 0474 21       		.byte	0x21
 2058 0475 FF000000 		.4byte	0xff
 2059 0479 05       		.uleb128 0x5
 2060 047a 03       		.byte	0x3
 2061 047b 00000000 		.4byte	cySysFlashBackup
 2062 047f 22       		.uleb128 0x22
 2063 0480 CB010000 		.4byte	.LASF34
 2064 0484 C8000000 		.4byte	0xc8
 2065 0488 9C040000 		.4byte	0x49c
 2066 048c 23       		.uleb128 0x23
 2067 048d C8000000 		.4byte	0xc8
 2068 0491 23       		.uleb128 0x23
 2069 0492 9C040000 		.4byte	0x49c
 2070 0496 23       		.uleb128 0x23
ARM GAS  C:\Users\IYANG~1.DES\AppData\Local\Temp\ccPqxEDZ.s 			page 93


 2071 0497 C1000000 		.4byte	0xc1
 2072 049b 00       		.byte	0
 2073 049c 19       		.uleb128 0x19
 2074 049d 04       		.byte	0x4
 2075 049e A2040000 		.4byte	0x4a2
 2076 04a2 24       		.uleb128 0x24
 2077 04a3 25       		.uleb128 0x25
 2078 04a4 3E010000 		.4byte	.LASF41
 2079 04a8 04       		.byte	0x4
 2080 04a9 E3       		.byte	0xe3
 2081 04aa 6B000000 		.4byte	0x6b
 2082 04ae 26       		.uleb128 0x26
 2083 04af 88010000 		.4byte	.LASF35
 2084 04b3 04       		.byte	0x4
 2085 04b4 E4       		.byte	0xe4
 2086 04b5 BF040000 		.4byte	0x4bf
 2087 04b9 23       		.uleb128 0x23
 2088 04ba 6B000000 		.4byte	0x6b
 2089 04be 00       		.byte	0
 2090 04bf 27       		.uleb128 0x27
 2091 04c0 AD010000 		.4byte	.LASF42
 2092 04c4 04       		.byte	0x4
 2093 04c5 E5       		.byte	0xe5
 2094 04c6 23       		.uleb128 0x23
 2095 04c7 6B000000 		.4byte	0x6b
 2096 04cb 00       		.byte	0
 2097 04cc 00       		.byte	0
 2098              		.section	.debug_abbrev,"",%progbits
 2099              	.Ldebug_abbrev0:
 2100 0000 01       		.uleb128 0x1
 2101 0001 11       		.uleb128 0x11
 2102 0002 01       		.byte	0x1
 2103 0003 25       		.uleb128 0x25
 2104 0004 0E       		.uleb128 0xe
 2105 0005 13       		.uleb128 0x13
 2106 0006 0B       		.uleb128 0xb
 2107 0007 03       		.uleb128 0x3
 2108 0008 0E       		.uleb128 0xe
 2109 0009 1B       		.uleb128 0x1b
 2110 000a 0E       		.uleb128 0xe
 2111 000b 55       		.uleb128 0x55
 2112 000c 17       		.uleb128 0x17
 2113 000d 11       		.uleb128 0x11
 2114 000e 01       		.uleb128 0x1
 2115 000f 10       		.uleb128 0x10
 2116 0010 17       		.uleb128 0x17
 2117 0011 00       		.byte	0
 2118 0012 00       		.byte	0
 2119 0013 02       		.uleb128 0x2
 2120 0014 24       		.uleb128 0x24
 2121 0015 00       		.byte	0
 2122 0016 0B       		.uleb128 0xb
 2123 0017 0B       		.uleb128 0xb
 2124 0018 3E       		.uleb128 0x3e
 2125 0019 0B       		.uleb128 0xb
 2126 001a 03       		.uleb128 0x3
 2127 001b 0E       		.uleb128 0xe
ARM GAS  C:\Users\IYANG~1.DES\AppData\Local\Temp\ccPqxEDZ.s 			page 94


 2128 001c 00       		.byte	0
 2129 001d 00       		.byte	0
 2130 001e 03       		.uleb128 0x3
 2131 001f 24       		.uleb128 0x24
 2132 0020 00       		.byte	0
 2133 0021 0B       		.uleb128 0xb
 2134 0022 0B       		.uleb128 0xb
 2135 0023 3E       		.uleb128 0x3e
 2136 0024 0B       		.uleb128 0xb
 2137 0025 03       		.uleb128 0x3
 2138 0026 08       		.uleb128 0x8
 2139 0027 00       		.byte	0
 2140 0028 00       		.byte	0
 2141 0029 04       		.uleb128 0x4
 2142 002a 16       		.uleb128 0x16
 2143 002b 00       		.byte	0
 2144 002c 03       		.uleb128 0x3
 2145 002d 0E       		.uleb128 0xe
 2146 002e 3A       		.uleb128 0x3a
 2147 002f 0B       		.uleb128 0xb
 2148 0030 3B       		.uleb128 0x3b
 2149 0031 05       		.uleb128 0x5
 2150 0032 49       		.uleb128 0x49
 2151 0033 13       		.uleb128 0x13
 2152 0034 00       		.byte	0
 2153 0035 00       		.byte	0
 2154 0036 05       		.uleb128 0x5
 2155 0037 35       		.uleb128 0x35
 2156 0038 00       		.byte	0
 2157 0039 49       		.uleb128 0x49
 2158 003a 13       		.uleb128 0x13
 2159 003b 00       		.byte	0
 2160 003c 00       		.byte	0
 2161 003d 06       		.uleb128 0x6
 2162 003e 0F       		.uleb128 0xf
 2163 003f 00       		.byte	0
 2164 0040 0B       		.uleb128 0xb
 2165 0041 0B       		.uleb128 0xb
 2166 0042 00       		.byte	0
 2167 0043 00       		.byte	0
 2168 0044 07       		.uleb128 0x7
 2169 0045 13       		.uleb128 0x13
 2170 0046 01       		.byte	0x1
 2171 0047 03       		.uleb128 0x3
 2172 0048 0E       		.uleb128 0xe
 2173 0049 0B       		.uleb128 0xb
 2174 004a 0B       		.uleb128 0xb
 2175 004b 3A       		.uleb128 0x3a
 2176 004c 0B       		.uleb128 0xb
 2177 004d 3B       		.uleb128 0x3b
 2178 004e 0B       		.uleb128 0xb
 2179 004f 01       		.uleb128 0x1
 2180 0050 13       		.uleb128 0x13
 2181 0051 00       		.byte	0
 2182 0052 00       		.byte	0
 2183 0053 08       		.uleb128 0x8
 2184 0054 0D       		.uleb128 0xd
ARM GAS  C:\Users\IYANG~1.DES\AppData\Local\Temp\ccPqxEDZ.s 			page 95


 2185 0055 00       		.byte	0
 2186 0056 03       		.uleb128 0x3
 2187 0057 0E       		.uleb128 0xe
 2188 0058 3A       		.uleb128 0x3a
 2189 0059 0B       		.uleb128 0xb
 2190 005a 3B       		.uleb128 0x3b
 2191 005b 0B       		.uleb128 0xb
 2192 005c 49       		.uleb128 0x49
 2193 005d 13       		.uleb128 0x13
 2194 005e 38       		.uleb128 0x38
 2195 005f 0B       		.uleb128 0xb
 2196 0060 00       		.byte	0
 2197 0061 00       		.byte	0
 2198 0062 09       		.uleb128 0x9
 2199 0063 01       		.uleb128 0x1
 2200 0064 01       		.byte	0x1
 2201 0065 49       		.uleb128 0x49
 2202 0066 13       		.uleb128 0x13
 2203 0067 01       		.uleb128 0x1
 2204 0068 13       		.uleb128 0x13
 2205 0069 00       		.byte	0
 2206 006a 00       		.byte	0
 2207 006b 0A       		.uleb128 0xa
 2208 006c 21       		.uleb128 0x21
 2209 006d 00       		.byte	0
 2210 006e 49       		.uleb128 0x49
 2211 006f 13       		.uleb128 0x13
 2212 0070 2F       		.uleb128 0x2f
 2213 0071 0B       		.uleb128 0xb
 2214 0072 00       		.byte	0
 2215 0073 00       		.byte	0
 2216 0074 0B       		.uleb128 0xb
 2217 0075 16       		.uleb128 0x16
 2218 0076 00       		.byte	0
 2219 0077 03       		.uleb128 0x3
 2220 0078 0E       		.uleb128 0xe
 2221 0079 3A       		.uleb128 0x3a
 2222 007a 0B       		.uleb128 0xb
 2223 007b 3B       		.uleb128 0x3b
 2224 007c 0B       		.uleb128 0xb
 2225 007d 49       		.uleb128 0x49
 2226 007e 13       		.uleb128 0x13
 2227 007f 00       		.byte	0
 2228 0080 00       		.byte	0
 2229 0081 0C       		.uleb128 0xc
 2230 0082 2E       		.uleb128 0x2e
 2231 0083 01       		.byte	0x1
 2232 0084 03       		.uleb128 0x3
 2233 0085 0E       		.uleb128 0xe
 2234 0086 3A       		.uleb128 0x3a
 2235 0087 0B       		.uleb128 0xb
 2236 0088 3B       		.uleb128 0x3b
 2237 0089 05       		.uleb128 0x5
 2238 008a 27       		.uleb128 0x27
 2239 008b 19       		.uleb128 0x19
 2240 008c 49       		.uleb128 0x49
 2241 008d 13       		.uleb128 0x13
ARM GAS  C:\Users\IYANG~1.DES\AppData\Local\Temp\ccPqxEDZ.s 			page 96


 2242 008e 20       		.uleb128 0x20
 2243 008f 0B       		.uleb128 0xb
 2244 0090 01       		.uleb128 0x1
 2245 0091 13       		.uleb128 0x13
 2246 0092 00       		.byte	0
 2247 0093 00       		.byte	0
 2248 0094 0D       		.uleb128 0xd
 2249 0095 34       		.uleb128 0x34
 2250 0096 00       		.byte	0
 2251 0097 03       		.uleb128 0x3
 2252 0098 0E       		.uleb128 0xe
 2253 0099 3A       		.uleb128 0x3a
 2254 009a 0B       		.uleb128 0xb
 2255 009b 3B       		.uleb128 0x3b
 2256 009c 05       		.uleb128 0x5
 2257 009d 49       		.uleb128 0x49
 2258 009e 13       		.uleb128 0x13
 2259 009f 00       		.byte	0
 2260 00a0 00       		.byte	0
 2261 00a1 0E       		.uleb128 0xe
 2262 00a2 2E       		.uleb128 0x2e
 2263 00a3 01       		.byte	0x1
 2264 00a4 3F       		.uleb128 0x3f
 2265 00a5 19       		.uleb128 0x19
 2266 00a6 03       		.uleb128 0x3
 2267 00a7 0E       		.uleb128 0xe
 2268 00a8 3A       		.uleb128 0x3a
 2269 00a9 0B       		.uleb128 0xb
 2270 00aa 3B       		.uleb128 0x3b
 2271 00ab 0B       		.uleb128 0xb
 2272 00ac 27       		.uleb128 0x27
 2273 00ad 19       		.uleb128 0x19
 2274 00ae 49       		.uleb128 0x49
 2275 00af 13       		.uleb128 0x13
 2276 00b0 11       		.uleb128 0x11
 2277 00b1 01       		.uleb128 0x1
 2278 00b2 12       		.uleb128 0x12
 2279 00b3 06       		.uleb128 0x6
 2280 00b4 40       		.uleb128 0x40
 2281 00b5 18       		.uleb128 0x18
 2282 00b6 9742     		.uleb128 0x2117
 2283 00b8 19       		.uleb128 0x19
 2284 00b9 01       		.uleb128 0x1
 2285 00ba 13       		.uleb128 0x13
 2286 00bb 00       		.byte	0
 2287 00bc 00       		.byte	0
 2288 00bd 0F       		.uleb128 0xf
 2289 00be 05       		.uleb128 0x5
 2290 00bf 00       		.byte	0
 2291 00c0 03       		.uleb128 0x3
 2292 00c1 0E       		.uleb128 0xe
 2293 00c2 3A       		.uleb128 0x3a
 2294 00c3 0B       		.uleb128 0xb
 2295 00c4 3B       		.uleb128 0x3b
 2296 00c5 0B       		.uleb128 0xb
 2297 00c6 49       		.uleb128 0x49
 2298 00c7 13       		.uleb128 0x13
ARM GAS  C:\Users\IYANG~1.DES\AppData\Local\Temp\ccPqxEDZ.s 			page 97


 2299 00c8 02       		.uleb128 0x2
 2300 00c9 17       		.uleb128 0x17
 2301 00ca 00       		.byte	0
 2302 00cb 00       		.byte	0
 2303 00cc 10       		.uleb128 0x10
 2304 00cd 34       		.uleb128 0x34
 2305 00ce 00       		.byte	0
 2306 00cf 03       		.uleb128 0x3
 2307 00d0 0E       		.uleb128 0xe
 2308 00d1 3A       		.uleb128 0x3a
 2309 00d2 0B       		.uleb128 0xb
 2310 00d3 3B       		.uleb128 0x3b
 2311 00d4 0B       		.uleb128 0xb
 2312 00d5 49       		.uleb128 0x49
 2313 00d6 13       		.uleb128 0x13
 2314 00d7 02       		.uleb128 0x2
 2315 00d8 18       		.uleb128 0x18
 2316 00d9 00       		.byte	0
 2317 00da 00       		.byte	0
 2318 00db 11       		.uleb128 0x11
 2319 00dc 34       		.uleb128 0x34
 2320 00dd 00       		.byte	0
 2321 00de 03       		.uleb128 0x3
 2322 00df 0E       		.uleb128 0xe
 2323 00e0 3A       		.uleb128 0x3a
 2324 00e1 0B       		.uleb128 0xb
 2325 00e2 3B       		.uleb128 0x3b
 2326 00e3 0B       		.uleb128 0xb
 2327 00e4 49       		.uleb128 0x49
 2328 00e5 13       		.uleb128 0x13
 2329 00e6 02       		.uleb128 0x2
 2330 00e7 17       		.uleb128 0x17
 2331 00e8 00       		.byte	0
 2332 00e9 00       		.byte	0
 2333 00ea 12       		.uleb128 0x12
 2334 00eb 1D       		.uleb128 0x1d
 2335 00ec 01       		.byte	0x1
 2336 00ed 31       		.uleb128 0x31
 2337 00ee 13       		.uleb128 0x13
 2338 00ef 52       		.uleb128 0x52
 2339 00f0 01       		.uleb128 0x1
 2340 00f1 55       		.uleb128 0x55
 2341 00f2 17       		.uleb128 0x17
 2342 00f3 58       		.uleb128 0x58
 2343 00f4 0B       		.uleb128 0xb
 2344 00f5 59       		.uleb128 0x59
 2345 00f6 0B       		.uleb128 0xb
 2346 00f7 01       		.uleb128 0x1
 2347 00f8 13       		.uleb128 0x13
 2348 00f9 00       		.byte	0
 2349 00fa 00       		.byte	0
 2350 00fb 13       		.uleb128 0x13
 2351 00fc 0B       		.uleb128 0xb
 2352 00fd 01       		.byte	0x1
 2353 00fe 55       		.uleb128 0x55
 2354 00ff 17       		.uleb128 0x17
 2355 0100 00       		.byte	0
ARM GAS  C:\Users\IYANG~1.DES\AppData\Local\Temp\ccPqxEDZ.s 			page 98


 2356 0101 00       		.byte	0
 2357 0102 14       		.uleb128 0x14
 2358 0103 34       		.uleb128 0x34
 2359 0104 00       		.byte	0
 2360 0105 31       		.uleb128 0x31
 2361 0106 13       		.uleb128 0x13
 2362 0107 02       		.uleb128 0x2
 2363 0108 17       		.uleb128 0x17
 2364 0109 00       		.byte	0
 2365 010a 00       		.byte	0
 2366 010b 15       		.uleb128 0x15
 2367 010c 34       		.uleb128 0x34
 2368 010d 00       		.byte	0
 2369 010e 31       		.uleb128 0x31
 2370 010f 13       		.uleb128 0x13
 2371 0110 02       		.uleb128 0x2
 2372 0111 18       		.uleb128 0x18
 2373 0112 00       		.byte	0
 2374 0113 00       		.byte	0
 2375 0114 16       		.uleb128 0x16
 2376 0115 898201   		.uleb128 0x4109
 2377 0118 01       		.byte	0x1
 2378 0119 11       		.uleb128 0x11
 2379 011a 01       		.uleb128 0x1
 2380 011b 31       		.uleb128 0x31
 2381 011c 13       		.uleb128 0x13
 2382 011d 01       		.uleb128 0x1
 2383 011e 13       		.uleb128 0x13
 2384 011f 00       		.byte	0
 2385 0120 00       		.byte	0
 2386 0121 17       		.uleb128 0x17
 2387 0122 8A8201   		.uleb128 0x410a
 2388 0125 00       		.byte	0
 2389 0126 02       		.uleb128 0x2
 2390 0127 18       		.uleb128 0x18
 2391 0128 9142     		.uleb128 0x2111
 2392 012a 18       		.uleb128 0x18
 2393 012b 00       		.byte	0
 2394 012c 00       		.byte	0
 2395 012d 18       		.uleb128 0x18
 2396 012e 898201   		.uleb128 0x4109
 2397 0131 00       		.byte	0
 2398 0132 11       		.uleb128 0x11
 2399 0133 01       		.uleb128 0x1
 2400 0134 31       		.uleb128 0x31
 2401 0135 13       		.uleb128 0x13
 2402 0136 00       		.byte	0
 2403 0137 00       		.byte	0
 2404 0138 19       		.uleb128 0x19
 2405 0139 0F       		.uleb128 0xf
 2406 013a 00       		.byte	0
 2407 013b 0B       		.uleb128 0xb
 2408 013c 0B       		.uleb128 0xb
 2409 013d 49       		.uleb128 0x49
 2410 013e 13       		.uleb128 0x13
 2411 013f 00       		.byte	0
 2412 0140 00       		.byte	0
ARM GAS  C:\Users\IYANG~1.DES\AppData\Local\Temp\ccPqxEDZ.s 			page 99


 2413 0141 1A       		.uleb128 0x1a
 2414 0142 26       		.uleb128 0x26
 2415 0143 00       		.byte	0
 2416 0144 49       		.uleb128 0x49
 2417 0145 13       		.uleb128 0x13
 2418 0146 00       		.byte	0
 2419 0147 00       		.byte	0
 2420 0148 1B       		.uleb128 0x1b
 2421 0149 2E       		.uleb128 0x2e
 2422 014a 01       		.byte	0x1
 2423 014b 3F       		.uleb128 0x3f
 2424 014c 19       		.uleb128 0x19
 2425 014d 03       		.uleb128 0x3
 2426 014e 0E       		.uleb128 0xe
 2427 014f 3A       		.uleb128 0x3a
 2428 0150 0B       		.uleb128 0xb
 2429 0151 3B       		.uleb128 0x3b
 2430 0152 05       		.uleb128 0x5
 2431 0153 27       		.uleb128 0x27
 2432 0154 19       		.uleb128 0x19
 2433 0155 11       		.uleb128 0x11
 2434 0156 01       		.uleb128 0x1
 2435 0157 12       		.uleb128 0x12
 2436 0158 06       		.uleb128 0x6
 2437 0159 40       		.uleb128 0x40
 2438 015a 18       		.uleb128 0x18
 2439 015b 9742     		.uleb128 0x2117
 2440 015d 19       		.uleb128 0x19
 2441 015e 01       		.uleb128 0x1
 2442 015f 13       		.uleb128 0x13
 2443 0160 00       		.byte	0
 2444 0161 00       		.byte	0
 2445 0162 1C       		.uleb128 0x1c
 2446 0163 05       		.uleb128 0x5
 2447 0164 00       		.byte	0
 2448 0165 03       		.uleb128 0x3
 2449 0166 0E       		.uleb128 0xe
 2450 0167 3A       		.uleb128 0x3a
 2451 0168 0B       		.uleb128 0xb
 2452 0169 3B       		.uleb128 0x3b
 2453 016a 05       		.uleb128 0x5
 2454 016b 49       		.uleb128 0x49
 2455 016c 13       		.uleb128 0x13
 2456 016d 02       		.uleb128 0x2
 2457 016e 17       		.uleb128 0x17
 2458 016f 00       		.byte	0
 2459 0170 00       		.byte	0
 2460 0171 1D       		.uleb128 0x1d
 2461 0172 34       		.uleb128 0x34
 2462 0173 00       		.byte	0
 2463 0174 03       		.uleb128 0x3
 2464 0175 0E       		.uleb128 0xe
 2465 0176 3A       		.uleb128 0x3a
 2466 0177 0B       		.uleb128 0xb
 2467 0178 3B       		.uleb128 0x3b
 2468 0179 05       		.uleb128 0x5
 2469 017a 49       		.uleb128 0x49
ARM GAS  C:\Users\IYANG~1.DES\AppData\Local\Temp\ccPqxEDZ.s 			page 100


 2470 017b 13       		.uleb128 0x13
 2471 017c 02       		.uleb128 0x2
 2472 017d 17       		.uleb128 0x17
 2473 017e 00       		.byte	0
 2474 017f 00       		.byte	0
 2475 0180 1E       		.uleb128 0x1e
 2476 0181 898201   		.uleb128 0x4109
 2477 0184 01       		.byte	0x1
 2478 0185 11       		.uleb128 0x11
 2479 0186 01       		.uleb128 0x1
 2480 0187 31       		.uleb128 0x31
 2481 0188 13       		.uleb128 0x13
 2482 0189 00       		.byte	0
 2483 018a 00       		.byte	0
 2484 018b 1F       		.uleb128 0x1f
 2485 018c 2E       		.uleb128 0x2e
 2486 018d 01       		.byte	0x1
 2487 018e 3F       		.uleb128 0x3f
 2488 018f 19       		.uleb128 0x19
 2489 0190 03       		.uleb128 0x3
 2490 0191 0E       		.uleb128 0xe
 2491 0192 3A       		.uleb128 0x3a
 2492 0193 0B       		.uleb128 0xb
 2493 0194 3B       		.uleb128 0x3b
 2494 0195 05       		.uleb128 0x5
 2495 0196 27       		.uleb128 0x27
 2496 0197 19       		.uleb128 0x19
 2497 0198 49       		.uleb128 0x49
 2498 0199 13       		.uleb128 0x13
 2499 019a 11       		.uleb128 0x11
 2500 019b 01       		.uleb128 0x1
 2501 019c 12       		.uleb128 0x12
 2502 019d 06       		.uleb128 0x6
 2503 019e 40       		.uleb128 0x40
 2504 019f 18       		.uleb128 0x18
 2505 01a0 9742     		.uleb128 0x2117
 2506 01a2 19       		.uleb128 0x19
 2507 01a3 01       		.uleb128 0x1
 2508 01a4 13       		.uleb128 0x13
 2509 01a5 00       		.byte	0
 2510 01a6 00       		.byte	0
 2511 01a7 20       		.uleb128 0x20
 2512 01a8 34       		.uleb128 0x34
 2513 01a9 00       		.byte	0
 2514 01aa 03       		.uleb128 0x3
 2515 01ab 0E       		.uleb128 0xe
 2516 01ac 3A       		.uleb128 0x3a
 2517 01ad 0B       		.uleb128 0xb
 2518 01ae 3B       		.uleb128 0x3b
 2519 01af 05       		.uleb128 0x5
 2520 01b0 49       		.uleb128 0x49
 2521 01b1 13       		.uleb128 0x13
 2522 01b2 02       		.uleb128 0x2
 2523 01b3 18       		.uleb128 0x18
 2524 01b4 00       		.byte	0
 2525 01b5 00       		.byte	0
 2526 01b6 21       		.uleb128 0x21
ARM GAS  C:\Users\IYANG~1.DES\AppData\Local\Temp\ccPqxEDZ.s 			page 101


 2527 01b7 1D       		.uleb128 0x1d
 2528 01b8 01       		.byte	0x1
 2529 01b9 31       		.uleb128 0x31
 2530 01ba 13       		.uleb128 0x13
 2531 01bb 52       		.uleb128 0x52
 2532 01bc 01       		.uleb128 0x1
 2533 01bd 55       		.uleb128 0x55
 2534 01be 17       		.uleb128 0x17
 2535 01bf 58       		.uleb128 0x58
 2536 01c0 0B       		.uleb128 0xb
 2537 01c1 59       		.uleb128 0x59
 2538 01c2 05       		.uleb128 0x5
 2539 01c3 01       		.uleb128 0x1
 2540 01c4 13       		.uleb128 0x13
 2541 01c5 00       		.byte	0
 2542 01c6 00       		.byte	0
 2543 01c7 22       		.uleb128 0x22
 2544 01c8 2E       		.uleb128 0x2e
 2545 01c9 01       		.byte	0x1
 2546 01ca 3F       		.uleb128 0x3f
 2547 01cb 19       		.uleb128 0x19
 2548 01cc 03       		.uleb128 0x3
 2549 01cd 0E       		.uleb128 0xe
 2550 01ce 27       		.uleb128 0x27
 2551 01cf 19       		.uleb128 0x19
 2552 01d0 49       		.uleb128 0x49
 2553 01d1 13       		.uleb128 0x13
 2554 01d2 34       		.uleb128 0x34
 2555 01d3 19       		.uleb128 0x19
 2556 01d4 3C       		.uleb128 0x3c
 2557 01d5 19       		.uleb128 0x19
 2558 01d6 01       		.uleb128 0x1
 2559 01d7 13       		.uleb128 0x13
 2560 01d8 00       		.byte	0
 2561 01d9 00       		.byte	0
 2562 01da 23       		.uleb128 0x23
 2563 01db 05       		.uleb128 0x5
 2564 01dc 00       		.byte	0
 2565 01dd 49       		.uleb128 0x49
 2566 01de 13       		.uleb128 0x13
 2567 01df 00       		.byte	0
 2568 01e0 00       		.byte	0
 2569 01e1 24       		.uleb128 0x24
 2570 01e2 26       		.uleb128 0x26
 2571 01e3 00       		.byte	0
 2572 01e4 00       		.byte	0
 2573 01e5 00       		.byte	0
 2574 01e6 25       		.uleb128 0x25
 2575 01e7 2E       		.uleb128 0x2e
 2576 01e8 00       		.byte	0
 2577 01e9 3F       		.uleb128 0x3f
 2578 01ea 19       		.uleb128 0x19
 2579 01eb 03       		.uleb128 0x3
 2580 01ec 0E       		.uleb128 0xe
 2581 01ed 3A       		.uleb128 0x3a
 2582 01ee 0B       		.uleb128 0xb
 2583 01ef 3B       		.uleb128 0x3b
ARM GAS  C:\Users\IYANG~1.DES\AppData\Local\Temp\ccPqxEDZ.s 			page 102


 2584 01f0 0B       		.uleb128 0xb
 2585 01f1 27       		.uleb128 0x27
 2586 01f2 19       		.uleb128 0x19
 2587 01f3 49       		.uleb128 0x49
 2588 01f4 13       		.uleb128 0x13
 2589 01f5 3C       		.uleb128 0x3c
 2590 01f6 19       		.uleb128 0x19
 2591 01f7 00       		.byte	0
 2592 01f8 00       		.byte	0
 2593 01f9 26       		.uleb128 0x26
 2594 01fa 2E       		.uleb128 0x2e
 2595 01fb 01       		.byte	0x1
 2596 01fc 3F       		.uleb128 0x3f
 2597 01fd 19       		.uleb128 0x19
 2598 01fe 03       		.uleb128 0x3
 2599 01ff 0E       		.uleb128 0xe
 2600 0200 3A       		.uleb128 0x3a
 2601 0201 0B       		.uleb128 0xb
 2602 0202 3B       		.uleb128 0x3b
 2603 0203 0B       		.uleb128 0xb
 2604 0204 27       		.uleb128 0x27
 2605 0205 19       		.uleb128 0x19
 2606 0206 3C       		.uleb128 0x3c
 2607 0207 19       		.uleb128 0x19
 2608 0208 01       		.uleb128 0x1
 2609 0209 13       		.uleb128 0x13
 2610 020a 00       		.byte	0
 2611 020b 00       		.byte	0
 2612 020c 27       		.uleb128 0x27
 2613 020d 2E       		.uleb128 0x2e
 2614 020e 01       		.byte	0x1
 2615 020f 3F       		.uleb128 0x3f
 2616 0210 19       		.uleb128 0x19
 2617 0211 03       		.uleb128 0x3
 2618 0212 0E       		.uleb128 0xe
 2619 0213 3A       		.uleb128 0x3a
 2620 0214 0B       		.uleb128 0xb
 2621 0215 3B       		.uleb128 0x3b
 2622 0216 0B       		.uleb128 0xb
 2623 0217 27       		.uleb128 0x27
 2624 0218 19       		.uleb128 0x19
 2625 0219 3C       		.uleb128 0x3c
 2626 021a 19       		.uleb128 0x19
 2627 021b 00       		.byte	0
 2628 021c 00       		.byte	0
 2629 021d 00       		.byte	0
 2630              		.section	.debug_loc,"",%progbits
 2631              	.Ldebug_loc0:
 2632              	.LLST0:
 2633 0000 00000000 		.4byte	.LVL0
 2634 0004 1A000000 		.4byte	.LVL1
 2635 0008 0100     		.2byte	0x1
 2636 000a 50       		.byte	0x50
 2637 000b 1A000000 		.4byte	.LVL1
 2638 000f 98000000 		.4byte	.LVL7
 2639 0013 0100     		.2byte	0x1
 2640 0015 54       		.byte	0x54
ARM GAS  C:\Users\IYANG~1.DES\AppData\Local\Temp\ccPqxEDZ.s 			page 103


 2641 0016 98000000 		.4byte	.LVL7
 2642 001a CE000000 		.4byte	.LVL9
 2643 001e 0400     		.2byte	0x4
 2644 0020 F3       		.byte	0xf3
 2645 0021 01       		.uleb128 0x1
 2646 0022 50       		.byte	0x50
 2647 0023 9F       		.byte	0x9f
 2648 0024 CE000000 		.4byte	.LVL9
 2649 0028 D2000000 		.4byte	.LVL10
 2650 002c 0100     		.2byte	0x1
 2651 002e 50       		.byte	0x50
 2652 002f D2000000 		.4byte	.LVL10
 2653 0033 D8000000 		.4byte	.LVL11
 2654 0037 0400     		.2byte	0x4
 2655 0039 F3       		.byte	0xf3
 2656 003a 01       		.uleb128 0x1
 2657 003b 50       		.byte	0x50
 2658 003c 9F       		.byte	0x9f
 2659 003d D8000000 		.4byte	.LVL11
 2660 0041 E8000000 		.4byte	.LVL12
 2661 0045 0100     		.2byte	0x1
 2662 0047 54       		.byte	0x54
 2663 0048 E8000000 		.4byte	.LVL12
 2664 004c 26010000 		.4byte	.LVL17
 2665 0050 0400     		.2byte	0x4
 2666 0052 F3       		.byte	0xf3
 2667 0053 01       		.uleb128 0x1
 2668 0054 50       		.byte	0x50
 2669 0055 9F       		.byte	0x9f
 2670 0056 26010000 		.4byte	.LVL17
 2671 005a 56010000 		.4byte	.LVL21
 2672 005e 0100     		.2byte	0x1
 2673 0060 54       		.byte	0x54
 2674 0061 56010000 		.4byte	.LVL21
 2675 0065 62010000 		.4byte	.LVL24
 2676 0069 0400     		.2byte	0x4
 2677 006b F3       		.byte	0xf3
 2678 006c 01       		.uleb128 0x1
 2679 006d 50       		.byte	0x50
 2680 006e 9F       		.byte	0x9f
 2681 006f 62010000 		.4byte	.LVL24
 2682 0073 B4010000 		.4byte	.LFE2
 2683 0077 0100     		.2byte	0x1
 2684 0079 54       		.byte	0x54
 2685 007a 00000000 		.4byte	0
 2686 007e 00000000 		.4byte	0
 2687              	.LLST1:
 2688 0082 00000000 		.4byte	.LVL0
 2689 0086 1D000000 		.4byte	.LVL2-1
 2690 008a 0100     		.2byte	0x1
 2691 008c 51       		.byte	0x51
 2692 008d 1D000000 		.4byte	.LVL2-1
 2693 0091 CE000000 		.4byte	.LVL9
 2694 0095 0400     		.2byte	0x4
 2695 0097 F3       		.byte	0xf3
 2696 0098 01       		.uleb128 0x1
 2697 0099 51       		.byte	0x51
ARM GAS  C:\Users\IYANG~1.DES\AppData\Local\Temp\ccPqxEDZ.s 			page 104


 2698 009a 9F       		.byte	0x9f
 2699 009b CE000000 		.4byte	.LVL9
 2700 009f D2000000 		.4byte	.LVL10
 2701 00a3 0100     		.2byte	0x1
 2702 00a5 51       		.byte	0x51
 2703 00a6 D2000000 		.4byte	.LVL10
 2704 00aa B4010000 		.4byte	.LFE2
 2705 00ae 0400     		.2byte	0x4
 2706 00b0 F3       		.byte	0xf3
 2707 00b1 01       		.uleb128 0x1
 2708 00b2 51       		.byte	0x51
 2709 00b3 9F       		.byte	0x9f
 2710 00b4 00000000 		.4byte	0
 2711 00b8 00000000 		.4byte	0
 2712              	.LLST2:
 2713 00bc 58000000 		.4byte	.LVL3
 2714 00c0 CB000000 		.4byte	.LVL8-1
 2715 00c4 0100     		.2byte	0x1
 2716 00c6 50       		.byte	0x50
 2717 00c7 E8000000 		.4byte	.LVL12
 2718 00cb B4010000 		.4byte	.LFE2
 2719 00cf 0100     		.2byte	0x1
 2720 00d1 50       		.byte	0x50
 2721 00d2 00000000 		.4byte	0
 2722 00d6 00000000 		.4byte	0
 2723              	.LLST3:
 2724 00da 58000000 		.4byte	.LVL3
 2725 00de 86000000 		.4byte	.LVL4
 2726 00e2 0200     		.2byte	0x2
 2727 00e4 30       		.byte	0x30
 2728 00e5 9F       		.byte	0x9f
 2729 00e6 86000000 		.4byte	.LVL4
 2730 00ea 8A000000 		.4byte	.LVL5
 2731 00ee 0100     		.2byte	0x1
 2732 00f0 53       		.byte	0x53
 2733 00f1 8A000000 		.4byte	.LVL5
 2734 00f5 8E000000 		.4byte	.LVL6
 2735 00f9 0300     		.2byte	0x3
 2736 00fb 91       		.byte	0x91
 2737 00fc D47E     		.sleb128 -172
 2738 00fe 26010000 		.4byte	.LVL17
 2739 0102 2E010000 		.4byte	.LVL18
 2740 0106 0300     		.2byte	0x3
 2741 0108 91       		.byte	0x91
 2742 0109 D47E     		.sleb128 -172
 2743 010b 4A010000 		.4byte	.LVL20
 2744 010f 56010000 		.4byte	.LVL21
 2745 0113 0200     		.2byte	0x2
 2746 0115 30       		.byte	0x30
 2747 0116 9F       		.byte	0x9f
 2748 0117 00000000 		.4byte	0
 2749 011b 00000000 		.4byte	0
 2750              	.LLST4:
 2751 011f E8000000 		.4byte	.LVL12
 2752 0123 0E010000 		.4byte	.LVL13
 2753 0127 0200     		.2byte	0x2
 2754 0129 30       		.byte	0x30
ARM GAS  C:\Users\IYANG~1.DES\AppData\Local\Temp\ccPqxEDZ.s 			page 105


 2755 012a 9F       		.byte	0x9f
 2756 012b 0E010000 		.4byte	.LVL13
 2757 012f 12010000 		.4byte	.LVL14
 2758 0133 0100     		.2byte	0x1
 2759 0135 53       		.byte	0x53
 2760 0136 1C010000 		.4byte	.LVL15
 2761 013a 22010000 		.4byte	.LVL16
 2762 013e 0200     		.2byte	0x2
 2763 0140 30       		.byte	0x30
 2764 0141 9F       		.byte	0x9f
 2765 0142 22010000 		.4byte	.LVL16
 2766 0146 26010000 		.4byte	.LVL17
 2767 014a 0100     		.2byte	0x1
 2768 014c 53       		.byte	0x53
 2769 014d 5C010000 		.4byte	.LVL22
 2770 0151 5E010000 		.4byte	.LVL23
 2771 0155 0200     		.2byte	0x2
 2772 0157 30       		.byte	0x30
 2773 0158 9F       		.byte	0x9f
 2774 0159 5E010000 		.4byte	.LVL23
 2775 015d 62010000 		.4byte	.LVL24
 2776 0161 0100     		.2byte	0x1
 2777 0163 53       		.byte	0x53
 2778 0164 00000000 		.4byte	0
 2779 0168 00000000 		.4byte	0
 2780              	.LLST5:
 2781 016c 26010000 		.4byte	.LVL17
 2782 0170 46010000 		.4byte	.LVL19
 2783 0174 0200     		.2byte	0x2
 2784 0176 30       		.byte	0x30
 2785 0177 9F       		.byte	0x9f
 2786 0178 46010000 		.4byte	.LVL19
 2787 017c 4A010000 		.4byte	.LVL20
 2788 0180 0100     		.2byte	0x1
 2789 0182 53       		.byte	0x53
 2790 0183 62010000 		.4byte	.LVL24
 2791 0187 64010000 		.4byte	.LVL25
 2792 018b 0200     		.2byte	0x2
 2793 018d 30       		.byte	0x30
 2794 018e 9F       		.byte	0x9f
 2795 018f 64010000 		.4byte	.LVL25
 2796 0193 68010000 		.4byte	.LVL26
 2797 0197 0100     		.2byte	0x1
 2798 0199 53       		.byte	0x53
 2799 019a 68010000 		.4byte	.LVL26
 2800 019e 6E010000 		.4byte	.LVL27
 2801 01a2 0200     		.2byte	0x2
 2802 01a4 30       		.byte	0x30
 2803 01a5 9F       		.byte	0x9f
 2804 01a6 6E010000 		.4byte	.LVL27
 2805 01aa B4010000 		.4byte	.LFE2
 2806 01ae 0100     		.2byte	0x1
 2807 01b0 53       		.byte	0x53
 2808 01b1 00000000 		.4byte	0
 2809 01b5 00000000 		.4byte	0
 2810              	.LLST6:
 2811 01b9 00000000 		.4byte	.LVL28
ARM GAS  C:\Users\IYANG~1.DES\AppData\Local\Temp\ccPqxEDZ.s 			page 106


 2812 01bd 07000000 		.4byte	.LVL29-1
 2813 01c1 0100     		.2byte	0x1
 2814 01c3 50       		.byte	0x50
 2815 01c4 07000000 		.4byte	.LVL29-1
 2816 01c8 2A000000 		.4byte	.LVL32
 2817 01cc 0100     		.2byte	0x1
 2818 01ce 54       		.byte	0x54
 2819 01cf 2A000000 		.4byte	.LVL32
 2820 01d3 2C000000 		.4byte	.LVL34
 2821 01d7 0400     		.2byte	0x4
 2822 01d9 F3       		.byte	0xf3
 2823 01da 01       		.uleb128 0x1
 2824 01db 50       		.byte	0x50
 2825 01dc 9F       		.byte	0x9f
 2826 01dd 2C000000 		.4byte	.LVL34
 2827 01e1 54000000 		.4byte	.LFE3
 2828 01e5 0100     		.2byte	0x1
 2829 01e7 54       		.byte	0x54
 2830 01e8 00000000 		.4byte	0
 2831 01ec 00000000 		.4byte	0
 2832              	.LLST7:
 2833 01f0 0A000000 		.4byte	.LVL30
 2834 01f4 2A000000 		.4byte	.LVL33
 2835 01f8 0100     		.2byte	0x1
 2836 01fa 55       		.byte	0x55
 2837 01fb 2C000000 		.4byte	.LVL34
 2838 01ff 54000000 		.4byte	.LFE3
 2839 0203 0100     		.2byte	0x1
 2840 0205 55       		.byte	0x55
 2841 0206 00000000 		.4byte	0
 2842 020a 00000000 		.4byte	0
 2843              	.LLST8:
 2844 020e 00000000 		.4byte	.LVL36
 2845 0212 1C000000 		.4byte	.LVL37
 2846 0216 0100     		.2byte	0x1
 2847 0218 50       		.byte	0x50
 2848 0219 1C000000 		.4byte	.LVL37
 2849 021d 96000000 		.4byte	.LVL43
 2850 0221 0100     		.2byte	0x1
 2851 0223 54       		.byte	0x54
 2852 0224 96000000 		.4byte	.LVL43
 2853 0228 BC000000 		.4byte	.LVL45
 2854 022c 0400     		.2byte	0x4
 2855 022e F3       		.byte	0xf3
 2856 022f 01       		.uleb128 0x1
 2857 0230 50       		.byte	0x50
 2858 0231 9F       		.byte	0x9f
 2859 0232 BC000000 		.4byte	.LVL45
 2860 0236 C0000000 		.4byte	.LVL46
 2861 023a 0100     		.2byte	0x1
 2862 023c 50       		.byte	0x50
 2863 023d C0000000 		.4byte	.LVL46
 2864 0241 C6000000 		.4byte	.LVL47
 2865 0245 0400     		.2byte	0x4
 2866 0247 F3       		.byte	0xf3
 2867 0248 01       		.uleb128 0x1
 2868 0249 50       		.byte	0x50
ARM GAS  C:\Users\IYANG~1.DES\AppData\Local\Temp\ccPqxEDZ.s 			page 107


 2869 024a 9F       		.byte	0x9f
 2870 024b C6000000 		.4byte	.LVL47
 2871 024f D2000000 		.4byte	.LVL48
 2872 0253 0100     		.2byte	0x1
 2873 0255 54       		.byte	0x54
 2874 0256 D2000000 		.4byte	.LVL48
 2875 025a 08010000 		.4byte	.LVL53
 2876 025e 0400     		.2byte	0x4
 2877 0260 F3       		.byte	0xf3
 2878 0261 01       		.uleb128 0x1
 2879 0262 50       		.byte	0x50
 2880 0263 9F       		.byte	0x9f
 2881 0264 08010000 		.4byte	.LVL53
 2882 0268 38010000 		.4byte	.LVL57
 2883 026c 0100     		.2byte	0x1
 2884 026e 54       		.byte	0x54
 2885 026f 38010000 		.4byte	.LVL57
 2886 0273 4C010000 		.4byte	.LVL60
 2887 0277 0400     		.2byte	0x4
 2888 0279 F3       		.byte	0xf3
 2889 027a 01       		.uleb128 0x1
 2890 027b 50       		.byte	0x50
 2891 027c 9F       		.byte	0x9f
 2892 027d 4C010000 		.4byte	.LVL60
 2893 0281 90010000 		.4byte	.LFE4
 2894 0285 0100     		.2byte	0x1
 2895 0287 54       		.byte	0x54
 2896 0288 00000000 		.4byte	0
 2897 028c 00000000 		.4byte	0
 2898              	.LLST9:
 2899 0290 00000000 		.4byte	.LVL36
 2900 0294 23000000 		.4byte	.LVL38-1
 2901 0298 0100     		.2byte	0x1
 2902 029a 51       		.byte	0x51
 2903 029b 23000000 		.4byte	.LVL38-1
 2904 029f BC000000 		.4byte	.LVL45
 2905 02a3 0400     		.2byte	0x4
 2906 02a5 F3       		.byte	0xf3
 2907 02a6 01       		.uleb128 0x1
 2908 02a7 51       		.byte	0x51
 2909 02a8 9F       		.byte	0x9f
 2910 02a9 BC000000 		.4byte	.LVL45
 2911 02ad C0000000 		.4byte	.LVL46
 2912 02b1 0100     		.2byte	0x1
 2913 02b3 51       		.byte	0x51
 2914 02b4 C0000000 		.4byte	.LVL46
 2915 02b8 90010000 		.4byte	.LFE4
 2916 02bc 0400     		.2byte	0x4
 2917 02be F3       		.byte	0xf3
 2918 02bf 01       		.uleb128 0x1
 2919 02c0 51       		.byte	0x51
 2920 02c1 9F       		.byte	0x9f
 2921 02c2 00000000 		.4byte	0
 2922 02c6 00000000 		.4byte	0
 2923              	.LLST10:
 2924 02ca 50000000 		.4byte	.LVL39
 2925 02ce B9000000 		.4byte	.LVL44-1
ARM GAS  C:\Users\IYANG~1.DES\AppData\Local\Temp\ccPqxEDZ.s 			page 108


 2926 02d2 0100     		.2byte	0x1
 2927 02d4 50       		.byte	0x50
 2928 02d5 D2000000 		.4byte	.LVL48
 2929 02d9 90010000 		.4byte	.LFE4
 2930 02dd 0100     		.2byte	0x1
 2931 02df 50       		.byte	0x50
 2932 02e0 00000000 		.4byte	0
 2933 02e4 00000000 		.4byte	0
 2934              	.LLST11:
 2935 02e8 50000000 		.4byte	.LVL39
 2936 02ec 7A000000 		.4byte	.LVL40
 2937 02f0 0200     		.2byte	0x2
 2938 02f2 30       		.byte	0x30
 2939 02f3 9F       		.byte	0x9f
 2940 02f4 7A000000 		.4byte	.LVL40
 2941 02f8 7E000000 		.4byte	.LVL41
 2942 02fc 0100     		.2byte	0x1
 2943 02fe 53       		.byte	0x53
 2944 02ff 7E000000 		.4byte	.LVL41
 2945 0303 82000000 		.4byte	.LVL42
 2946 0307 0300     		.2byte	0x3
 2947 0309 91       		.byte	0x91
 2948 030a D47E     		.sleb128 -172
 2949 030c 08010000 		.4byte	.LVL53
 2950 0310 10010000 		.4byte	.LVL54
 2951 0314 0300     		.2byte	0x3
 2952 0316 91       		.byte	0x91
 2953 0317 D47E     		.sleb128 -172
 2954 0319 2C010000 		.4byte	.LVL56
 2955 031d 38010000 		.4byte	.LVL57
 2956 0321 0200     		.2byte	0x2
 2957 0323 30       		.byte	0x30
 2958 0324 9F       		.byte	0x9f
 2959 0325 00000000 		.4byte	0
 2960 0329 00000000 		.4byte	0
 2961              	.LLST12:
 2962 032d D2000000 		.4byte	.LVL48
 2963 0331 F8000000 		.4byte	.LVL49
 2964 0335 0200     		.2byte	0x2
 2965 0337 30       		.byte	0x30
 2966 0338 9F       		.byte	0x9f
 2967 0339 F8000000 		.4byte	.LVL49
 2968 033d FC000000 		.4byte	.LVL50
 2969 0341 0100     		.2byte	0x1
 2970 0343 53       		.byte	0x53
 2971 0344 02010000 		.4byte	.LVL51
 2972 0348 04010000 		.4byte	.LVL52
 2973 034c 0200     		.2byte	0x2
 2974 034e 30       		.byte	0x30
 2975 034f 9F       		.byte	0x9f
 2976 0350 04010000 		.4byte	.LVL52
 2977 0354 08010000 		.4byte	.LVL53
 2978 0358 0100     		.2byte	0x1
 2979 035a 53       		.byte	0x53
 2980 035b 42010000 		.4byte	.LVL58
 2981 035f 48010000 		.4byte	.LVL59
 2982 0363 0200     		.2byte	0x2
ARM GAS  C:\Users\IYANG~1.DES\AppData\Local\Temp\ccPqxEDZ.s 			page 109


 2983 0365 30       		.byte	0x30
 2984 0366 9F       		.byte	0x9f
 2985 0367 48010000 		.4byte	.LVL59
 2986 036b 4C010000 		.4byte	.LVL60
 2987 036f 0100     		.2byte	0x1
 2988 0371 53       		.byte	0x53
 2989 0372 00000000 		.4byte	0
 2990 0376 00000000 		.4byte	0
 2991              	.LLST13:
 2992 037a 08010000 		.4byte	.LVL53
 2993 037e 28010000 		.4byte	.LVL55
 2994 0382 0200     		.2byte	0x2
 2995 0384 30       		.byte	0x30
 2996 0385 9F       		.byte	0x9f
 2997 0386 28010000 		.4byte	.LVL55
 2998 038a 2C010000 		.4byte	.LVL56
 2999 038e 0100     		.2byte	0x1
 3000 0390 53       		.byte	0x53
 3001 0391 4C010000 		.4byte	.LVL60
 3002 0395 4E010000 		.4byte	.LVL61
 3003 0399 0200     		.2byte	0x2
 3004 039b 30       		.byte	0x30
 3005 039c 9F       		.byte	0x9f
 3006 039d 4E010000 		.4byte	.LVL61
 3007 03a1 52010000 		.4byte	.LVL62
 3008 03a5 0100     		.2byte	0x1
 3009 03a7 53       		.byte	0x53
 3010 03a8 52010000 		.4byte	.LVL62
 3011 03ac 58010000 		.4byte	.LVL63
 3012 03b0 0200     		.2byte	0x2
 3013 03b2 30       		.byte	0x30
 3014 03b3 9F       		.byte	0x9f
 3015 03b4 58010000 		.4byte	.LVL63
 3016 03b8 90010000 		.4byte	.LFE4
 3017 03bc 0100     		.2byte	0x1
 3018 03be 53       		.byte	0x53
 3019 03bf 00000000 		.4byte	0
 3020 03c3 00000000 		.4byte	0
 3021              		.section	.debug_aranges,"",%progbits
 3022 0000 2C000000 		.4byte	0x2c
 3023 0004 0200     		.2byte	0x2
 3024 0006 00000000 		.4byte	.Ldebug_info0
 3025 000a 04       		.byte	0x4
 3026 000b 00       		.byte	0
 3027 000c 0000     		.2byte	0
 3028 000e 0000     		.2byte	0
 3029 0010 00000000 		.4byte	.LFB2
 3030 0014 B4010000 		.4byte	.LFE2-.LFB2
 3031 0018 00000000 		.4byte	.LFB3
 3032 001c 54000000 		.4byte	.LFE3-.LFB3
 3033 0020 00000000 		.4byte	.LFB4
 3034 0024 90010000 		.4byte	.LFE4-.LFB4
 3035 0028 00000000 		.4byte	0
 3036 002c 00000000 		.4byte	0
 3037              		.section	.debug_ranges,"",%progbits
 3038              	.Ldebug_ranges0:
 3039 0000 58000000 		.4byte	.LBB8
ARM GAS  C:\Users\IYANG~1.DES\AppData\Local\Temp\ccPqxEDZ.s 			page 110


 3040 0004 86000000 		.4byte	.LBE8
 3041 0008 4A010000 		.4byte	.LBB20
 3042 000c 56010000 		.4byte	.LBE20
 3043 0010 00000000 		.4byte	0
 3044 0014 00000000 		.4byte	0
 3045 0018 E8000000 		.4byte	.LBB11
 3046 001c 0E010000 		.4byte	.LBE11
 3047 0020 1C010000 		.4byte	.LBB15
 3048 0024 22010000 		.4byte	.LBE15
 3049 0028 5C010000 		.4byte	.LBB21
 3050 002c 5E010000 		.4byte	.LBE21
 3051 0030 00000000 		.4byte	0
 3052 0034 00000000 		.4byte	0
 3053 0038 26010000 		.4byte	.LBB16
 3054 003c 46010000 		.4byte	.LBE16
 3055 0040 62010000 		.4byte	.LBB22
 3056 0044 64010000 		.4byte	.LBE22
 3057 0048 68010000 		.4byte	.LBB23
 3058 004c 6E010000 		.4byte	.LBE23
 3059 0050 00000000 		.4byte	0
 3060 0054 00000000 		.4byte	0
 3061 0058 50000000 		.4byte	.LBB30
 3062 005c 7A000000 		.4byte	.LBE30
 3063 0060 2C010000 		.4byte	.LBB42
 3064 0064 38010000 		.4byte	.LBE42
 3065 0068 00000000 		.4byte	0
 3066 006c 00000000 		.4byte	0
 3067 0070 D2000000 		.4byte	.LBB33
 3068 0074 F8000000 		.4byte	.LBE33
 3069 0078 02010000 		.4byte	.LBB37
 3070 007c 04010000 		.4byte	.LBE37
 3071 0080 42010000 		.4byte	.LBB43
 3072 0084 48010000 		.4byte	.LBE43
 3073 0088 00000000 		.4byte	0
 3074 008c 00000000 		.4byte	0
 3075 0090 08010000 		.4byte	.LBB38
 3076 0094 28010000 		.4byte	.LBE38
 3077 0098 4C010000 		.4byte	.LBB44
 3078 009c 4E010000 		.4byte	.LBE44
 3079 00a0 52010000 		.4byte	.LBB45
 3080 00a4 58010000 		.4byte	.LBE45
 3081 00a8 00000000 		.4byte	0
 3082 00ac 00000000 		.4byte	0
 3083 00b0 00000000 		.4byte	.LFB2
 3084 00b4 B4010000 		.4byte	.LFE2
 3085 00b8 00000000 		.4byte	.LFB3
 3086 00bc 54000000 		.4byte	.LFE3
 3087 00c0 00000000 		.4byte	.LFB4
 3088 00c4 90010000 		.4byte	.LFE4
 3089 00c8 00000000 		.4byte	0
 3090 00cc 00000000 		.4byte	0
 3091              		.section	.debug_line,"",%progbits
 3092              	.Ldebug_line0:
 3093 0000 0D020000 		.section	.debug_str,"MS",%progbits,1
 3093      02005C00 
 3093      00000201 
 3093      FB0E0D00 
ARM GAS  C:\Users\IYANG~1.DES\AppData\Local\Temp\ccPqxEDZ.s 			page 111


 3093      01010101 
 3094              	.LASF15:
 3095 0000 63797374 		.ascii	"cystatus\000"
 3095      61747573 
 3095      00
 3096              	.LASF16:
 3097 0009 72656733 		.ascii	"reg32\000"
 3097      3200
 3098              	.LASF21:
 3099 000f 72657456 		.ascii	"retValue\000"
 3099      616C7565 
 3099      00
 3100              	.LASF26:
 3101 0018 726F774E 		.ascii	"rowNum\000"
 3101      756D00
 3102              	.LASF28:
 3103 001f 636C6B43 		.ascii	"clkCnfRetValue\000"
 3103      6E665265 
 3103      7456616C 
 3103      756500
 3104              	.LASF39:
 3105 002e 63795379 		.ascii	"cySysFlashClockBackupStruct\000"
 3105      73466C61 
 3105      7368436C 
 3105      6F636B42 
 3105      61636B75 
 3106              	.LASF32:
 3107 004a 43795379 		.ascii	"CySysSFlashWriteUserRow\000"
 3107      7353466C 
 3107      61736857 
 3107      72697465 
 3107      55736572 
 3108              	.LASF3:
 3109 0062 73686F72 		.ascii	"short unsigned int\000"
 3109      7420756E 
 3109      7369676E 
 3109      65642069 
 3109      6E7400
 3110              	.LASF8:
 3111 0075 756E7369 		.ascii	"unsigned int\000"
 3111      676E6564 
 3111      20696E74 
 3111      00
 3112              	.LASF38:
 3113 0082 443A5C44 		.ascii	"D:\\Dropbox\\blog\\UV sensor\\SW\\UVSensorCypress\\"
 3113      726F7062 
 3113      6F785C62 
 3113      6C6F675C 
 3113      55562073 
 3114 00af 55562053 		.ascii	"UV Sensor.cydsn\000"
 3114      656E736F 
 3114      722E6379 
 3114      64736E00 
 3115              	.LASF12:
 3116 00bf 666C6F61 		.ascii	"float\000"
 3116      7400
 3117              	.LASF18:
ARM GAS  C:\Users\IYANG~1.DES\AppData\Local\Temp\ccPqxEDZ.s 			page 112


 3118 00c5 636C6B49 		.ascii	"clkImoPump\000"
 3118      6D6F5075 
 3118      6D7000
 3119              	.LASF7:
 3120 00d0 6C6F6E67 		.ascii	"long long unsigned int\000"
 3120      206C6F6E 
 3120      6720756E 
 3120      7369676E 
 3120      65642069 
 3121              	.LASF1:
 3122 00e7 756E7369 		.ascii	"unsigned char\000"
 3122      676E6564 
 3122      20636861 
 3122      7200
 3123              	.LASF27:
 3124 00f5 726F7744 		.ascii	"rowData\000"
 3124      61746100 
 3125              	.LASF22:
 3126 00fd 70617261 		.ascii	"parameters\000"
 3126      6D657465 
 3126      727300
 3127              	.LASF33:
 3128 0108 63795379 		.ascii	"cySysFlashBackup\000"
 3128      73466C61 
 3128      73684261 
 3128      636B7570 
 3128      00
 3129              	.LASF9:
 3130 0119 75696E74 		.ascii	"uint8\000"
 3130      3800
 3131              	.LASF13:
 3132 011f 646F7562 		.ascii	"double\000"
 3132      6C6500
 3133              	.LASF2:
 3134 0126 73686F72 		.ascii	"short int\000"
 3134      7420696E 
 3134      7400
 3135              	.LASF10:
 3136 0130 75696E74 		.ascii	"uint16\000"
 3136      313600
 3137              	.LASF11:
 3138 0137 75696E74 		.ascii	"uint32\000"
 3138      333200
 3139              	.LASF41:
 3140 013e 4379456E 		.ascii	"CyEnterCriticalSection\000"
 3140      74657243 
 3140      72697469 
 3140      63616C53 
 3140      65637469 
 3141              	.LASF5:
 3142 0155 6C6F6E67 		.ascii	"long unsigned int\000"
 3142      20756E73 
 3142      69676E65 
 3142      6420696E 
 3142      7400
 3143              	.LASF37:
 3144 0167 47656E65 		.ascii	"Generated_Source\\PSoC4\\CyFlash.c\000"
ARM GAS  C:\Users\IYANG~1.DES\AppData\Local\Temp\ccPqxEDZ.s 			page 113


 3144      72617465 
 3144      645F536F 
 3144      75726365 
 3144      5C50536F 
 3145              	.LASF35:
 3146 0188 43794578 		.ascii	"CyExitCriticalSection\000"
 3146      69744372 
 3146      69746963 
 3146      616C5365 
 3146      6374696F 
 3147              	.LASF29:
 3148 019e 696E7465 		.ascii	"interruptState\000"
 3148      72727570 
 3148      74537461 
 3148      746500
 3149              	.LASF42:
 3150 01ad 43794861 		.ascii	"CyHalt\000"
 3150      6C7400
 3151              	.LASF17:
 3152 01b4 73697A65 		.ascii	"sizetype\000"
 3152      74797065 
 3152      00
 3153              	.LASF6:
 3154 01bd 6C6F6E67 		.ascii	"long long int\000"
 3154      206C6F6E 
 3154      6720696E 
 3154      7400
 3155              	.LASF34:
 3156 01cb 6D656D63 		.ascii	"memcpy\000"
 3156      707900
 3157              	.LASF30:
 3158 01d2 66726571 		.ascii	"freq\000"
 3158      00
 3159              	.LASF36:
 3160 01d7 474E5520 		.ascii	"GNU C 4.9.3 20150303 (release) [ARM/embedded-4_9-br"
 3160      4320342E 
 3160      392E3320 
 3160      32303135 
 3160      30333033 
 3161 020a 616E6368 		.ascii	"anch revision 221220] -mcpu=cortex-m0 -mthumb -g -O"
 3161      20726576 
 3161      6973696F 
 3161      6E203232 
 3161      31323230 
 3162 023d 33202D66 		.ascii	"3 -ffunction-sections -finline-functions -flto -ffa"
 3162      66756E63 
 3162      74696F6E 
 3162      2D736563 
 3162      74696F6E 
 3163 0270 742D6C74 		.ascii	"t-lto-objects\000"
 3163      6F2D6F62 
 3163      6A656374 
 3163      7300
 3164              	.LASF19:
 3165 027e 636C6F63 		.ascii	"clockSettings\000"
 3165      6B536574 
 3165      74696E67 
ARM GAS  C:\Users\IYANG~1.DES\AppData\Local\Temp\ccPqxEDZ.s 			page 114


 3165      7300
 3166              	.LASF24:
 3167 028c 43795379 		.ascii	"CySysFlashClockConfig\000"
 3167      73466C61 
 3167      7368436C 
 3167      6F636B43 
 3167      6F6E6669 
 3168              	.LASF25:
 3169 02a2 43795379 		.ascii	"CySysFlashClockRestore\000"
 3169      73466C61 
 3169      7368436C 
 3169      6F636B52 
 3169      6573746F 
 3170              	.LASF23:
 3171 02b9 43795379 		.ascii	"CySysFlashClockBackup\000"
 3171      73466C61 
 3171      7368436C 
 3171      6F636B42 
 3171      61636B75 
 3172              	.LASF20:
 3173 02cf 43595F53 		.ascii	"CY_SYS_FLASH_CLOCK_BACKUP_STRUCT\000"
 3173      59535F46 
 3173      4C415348 
 3173      5F434C4F 
 3173      434B5F42 
 3174              	.LASF4:
 3175 02f0 6C6F6E67 		.ascii	"long int\000"
 3175      20696E74 
 3175      00
 3176              	.LASF14:
 3177 02f9 63686172 		.ascii	"char\000"
 3177      00
 3178              	.LASF0:
 3179 02fe 7369676E 		.ascii	"signed char\000"
 3179      65642063 
 3179      68617200 
 3180              	.LASF31:
 3181 030a 43795379 		.ascii	"CySysFlashWriteRow\000"
 3181      73466C61 
 3181      73685772 
 3181      69746552 
 3181      6F7700
 3182              	.LASF40:
 3183 031d 43795379 		.ascii	"CySysFlashSetWaitCycles\000"
 3183      73466C61 
 3183      73685365 
 3183      74576169 
 3183      74437963 
 3184              		.comm	__gnu_lto_v1,1,1
 3185              		.ident	"GCC: (GNU Tools for ARM Embedded Processors) 4.9.3 20150303 (release) [ARM/embedded-4_9-br
