ARM GAS  C:\Users\IYANG~1.DES\AppData\Local\Temp\ccQxKkVG.s 			page 1


   1              		.cpu cortex-m0
   2              		.fpu softvfp
   3              		.eabi_attribute 20, 1
   4              		.eabi_attribute 21, 1
   5              		.eabi_attribute 23, 3
   6              		.eabi_attribute 24, 1
   7              		.eabi_attribute 25, 1
   8              		.eabi_attribute 26, 1
   9              		.eabi_attribute 30, 2
  10              		.eabi_attribute 34, 0
  11              		.eabi_attribute 18, 4
  12              		.code	16
  13              		.file	"UART_1.c"
  14              		.text
  15              	.Ltext0:
  16              		.section	.gnu.lto_.profile.183f2a54,"",%progbits
  17 0000 789C6366 		.ascii	"x\234cf```a\200\000F\2060e\000\001C\000\202"
  17      60606061 
  17      80004686 
  17      30650001 
  17      430082
  18              		.text
  19              		.section	.gnu.lto_.jmpfuncs.183f2a54,"",%progbits
  20 0000 789C6366 		.ascii	"x\234cf\300\016d\2414\033\210`\004b&\020\203\005\210"
  20      C00E64A1 
  20      341B8860 
  20      04622610 
  20      830588
  21 0013 59191919 		.ascii	"Y\031\031\031\353\331@\004\003\000\013H\001="
  21      EBD94004 
  21      03000B48 
  21      013D
  22              		.text
  23              		.section	.gnu.lto_.inline.183f2a54,"",%progbits
  24 0000 789C6366 		.ascii	"x\234cf\300\016\346Ai6\006\006\026\036F\006&\020s\201"
  24      C00EE641 
  24      69360606 
  24      161E4606 
  24      26107381 
  25 0014 3C886260 		.ascii	"<\210b`\344\002\021\014\354\374@a\266\017z\250\342L"
  25      E402110C 
  25      ECFC4061 
  25      B60F7AA8 
  25      E24C
  26 0026 0C3C6240 		.ascii	"\014<b@q\276W\311h\352A\004\013\003\207\000P\222\343"
  26      71BE57C9 
  26      68EA4104 
  26      0B038700 
  26      5092E3
  27 0039 801DAA24 		.ascii	"\200\035\252$+\003\007;##\320L\006f\270\034\323\005"
  27      2B03073B 
  27      2323D04C 
  27      0666B81C 
  27      D305
  28 004b 7E168803 		.ascii	"~\026\210\003p\3131\000\000\002\307\015\214"
  28      70CB3100 
  28      0002C70D 
ARM GAS  C:\Users\IYANG~1.DES\AppData\Local\Temp\ccQxKkVG.s 			page 2


  28      8C
  29              		.text
  30              		.section	.gnu.lto_.pureconst.183f2a54,"",%progbits
  31 0000 789C6366 		.ascii	"x\234cf``\340e\200\0006\006\011F)&)\026)V)6)\000\005"
  31      6060E065 
  31      80003606 
  31      09462926 
  31      29162956 
  32 0019 A700C3   		.ascii	"\247\000\303"
  33              		.text
  34              		.section	.gnu.lto_UART_1_Init.183f2a54,"",%progbits
  35 0000 789C6366 		.ascii	"x\234cf\300\004R@\274\030\210\225\200\230\221\231\201"
  35      C0045240 
  35      BC188895 
  35      80989199 
  35      81
  36 0011 9169C239 		.ascii	"\221i\3029\006\206F\016&FF\020\203\201\221\241\236\211"
  36      0686460E 
  36      26464610 
  36      838191A1 
  36      9E89
  37 0023 B19EF125 		.ascii	"\261\236\361%\323G&\306\011\007V\317\340V_\332\320\320"
  37      D34726C6 
  37      090756CF 
  37      E0565FDA 
  37      D0D0
  38 0035 F061D37E 		.ascii	"\360a\323~\211V\211\237L\014\014\237\231 \3060.gTg\000"
  38      8956899F 
  38      4C0C0C9F 
  38      9920C630 
  38      2E675467 
  39 004a AAF9D8F2 		.ascii	"\252\371\330\362\367:7[\013P\215\000D\216q\005#\033"
  39      F73A375B 
  39      0B508D00 
  39      448E7105 
  39      231B
  40 005c 23905E2F 		.ascii	"#\220^/t\240\341\377\377\315\377&vh3130<\001\312\201"
  40      74A0E1FF 
  40      FFCDFF26 
  40      76683331 
  40      33303C01 
  41 0072 2C78CAC4 		.ascii	",x\312\304\004\242\231\35706\037\330{\212\011\244\032"
  41      04A299EF 
  41      30361FD8 
  41      7B8A09A4 
  41      1A
  42 0083 64CCBCCB 		.ascii	"d\314\274\313}\353\230j\1777t4p\374db\374\314\0044\201"
  42      7DEB986A 
  42      7F377434 
  42      70FC6462 
  42      FCCC0434 
  43 0098 7125632D 		.ascii	"q%c-\303O\240\362{\214\215\007nz\201U2\200\014b\004"
  43      C34FA0F2 
  43      7B8C8D07 
  43      6E7A8155 
  43      32800C62 
  44 00ad 1900344E 		.ascii	"\031\0004N\301=5/\265(\261$5%>8\277\264(95& 8\337\331"
ARM GAS  C:\Users\IYANG~1.DES\AppData\Local\Temp\ccQxKkVG.s 			page 3


  44      C13D352F 
  44      B528B124 
  44      35253E38 
  44      BFB42839 
  45 00c7 2426D431 		.ascii	"$&\3241($\336P/\231\001\000S=E\326"
  45      2824DE50 
  45      2F990100 
  45      533D45D6 
  46              		.text
  47              		.section	.gnu.lto_UART_1_Enable.183f2a54,"",%progbits
  48 0000 789C7D90 		.ascii	"x\234}\220\315K\002Q\024\305\357\271\243\203\344&Z\211"
  48      CD4B0251 
  48      14C5EFB9 
  48      A383E426 
  48      5A89
  49 0012 AB70E32E 		.ascii	"\253p\343.\010\372\007\242E\273\210\254M\004\022\346"
  49      08FA07A2 
  49      45BB88AC 
  49      4D0412E6 
  50 0022 36416A29 		.ascii	"6Aj)>q\002i\021&\005A\331&\242\017K\243\210\266C\177"
  50      3E710269 
  50      11260541 
  50      D926A20F 
  50      4BA388B6 
  51 0038 80112D04 		.ascii	"\200\021-\004\213\332(\325&\022\243\030\372\260\373"
  51      8BDA28D5 
  51      2612A318 
  51      FAB0FB
  52 0047 74554103 		.ascii	"tUA\003\363\336\274\271\347\376\316;\327\240\277\217"
  52      F3DEBCB9 
  52      E7FECE3B 
  52      D7A0BF8F 
  53 0057 5F5E0B44 		.ascii	"_^\013D\001\331a\0208[&Jy\030\320\037\004J2\222x\344"
  53      01D96110 
  53      385B264A 
  53      7918D01F 
  53      044A3292 
  54 006d 06236B17 		.ascii	"\006#k\027\326\274\301m\245\324\363\361\265o\301\347"
  54      D6BCC16D 
  54      A5D4F3F1 
  54      B56FC1E7 
  55 007d 3051933B 		.ascii	"0Q\223;\030\354 H\242iX\237\025\257i\211\246\273S\303"
  55      18EC2048 
  55      A269589F 
  55      15AF6989 
  55      A6BB53C3 
  56 0091 2E4CC153 		.ascii	".L\301S\251\307V\255\326\311S.\0230L&\207\305L\026\242"
  56      A9C756AD 
  56      D6C9532E 
  56      13304C26 
  56      87C54C16 
  57 00a6 9AA8B455 		.ascii	"\232\250\264U\235Y\357F\025\347\257\213\345\322\244"
  57      9D59EF46 
  57      15E7AF8B 
  57      E5D2A4
  58 00b5 6E7C63ED 		.ascii	"n|c\355\273\261r\277\205\007v\230\225\312\246\\\332"
  58      BBB172BF 
ARM GAS  C:\Users\IYANG~1.DES\AppData\Local\Temp\ccQxKkVG.s 			page 4


  58      85077698 
  58      95CAA65C 
  58      DA
  59 00c6 E6AE7671 		.ascii	"\346\256vq\351i\377\"}<[-\234\272\363XOYp\330\300\036"
  59      E969FF22 
  59      7D3C5B2D 
  59      9CBAF358 
  59      4F5970D8 
  60 00dc FCD88724 		.ascii	"\374\330\207$C\001yP\025\351\027\263\2033:\304\334W"
  60      43017950 
  60      15E917B3 
  60      83333AC4 
  60      DC57
  61 00ee DDEAD2ED 		.ascii	"\335\352\322\355\220\213*\017\341@\324b\234\203\226"
  61      908B2A0F 
  61      E140D462 
  61      9C8396
  62 00fd FD073C14 		.ascii	"\375\007<\024\240`\350\006i\273R\345\037\211\355\017"
  62      A060E806 
  62      69BB52E5 
  62      1F89ED0F 
  63 010d 6F3B6E53 		.ascii	"o;nSb\375\032\005\2120\245\273$\253T6\257\226\212\234"
  63      62FD1A05 
  63      8A30A5BB 
  63      24AB5436 
  63      AF968A9C 
  64 0121 785719E5 		.ascii	"xW\031\345q\330\325dn\227q\204\204\214\304M\267H\331"
  64      71D8D564 
  64      6E977184 
  64      848CC44D 
  64      B748D9
  65 0134 CB239AA4 		.ascii	"\313#\232\244'[\023\232\314E\202\366\016Gg\243\361\351"
  65      275B139A 
  65      CC4582F6 
  65      0E4767A3 
  65      F1E9
  66 0146 B9E84C38 		.ascii	"\271\350L8\024\233\217G\242S\243\241\330\320\300\324"
  66      149B8F47 
  66      A253A3A1 
  66      D8D0C0D4 
  67 0156 C4E0D878 		.ascii	"\304\340\330x\270\277/B\337\253V\222\317"
  67      B8BF2F42 
  67      DFAB5692 
  67      CF
  68              		.text
  69              		.section	.gnu.lto_UART_1_Start.183f2a54,"",%progbits
  70 0000 789C7D92 		.ascii	"x\234}\222\317k\023A\024\307\337{3\311.IA\361Tz(\342"
  70      CF6B1341 
  70      14C7DF7B 
  70      33C92E49 
  70      41F1547A 
  71 0016 A5B78AE8 		.ascii	"\245\267\212\350? \036\274\211X\275H\241h\315\325B\321"
  71      3F201EBC 
  71      8958BD48 
  71      A168CDD5 
  71      42D1
  72 0028 63E8AC59 		.ascii	"c\350\254YED$\244=\210V\017\212\265\265\332X\177\233"
ARM GAS  C:\Users\IYANG~1.DES\AppData\Local\Temp\ccQxKkVG.s 			page 5


  72      454424A4 
  72      3D88560F 
  72      8AB5B5DA 
  72      587F9B
  73 003b 2A2C7AF3 		.ascii	"*,z\363\020)\322\246\004\177\\\022\254\267\224\265\206"
  73      1029D2A6 
  73      047F5C12 
  73      ACB794B5 
  73      86
  74 004c A0B5BE37 		.ascii	"\240\265\2767\033\224$\352\302\314\354\316{\363\235"
  74      1B9424EA 
  74      C2CCECCE 
  74      7BF39D
  75 005b CFF7BD55 		.ascii	"\317\367\275U\320\371\354\346\261A\000;x\305\030 e\213"
  75      D0F9ECE6 
  75      B141003B 
  75      78C51820 
  75      658B
  76 006d 009E4BA4 		.ascii	"\000\236K\244\012\275`\022zy'\230.\205:\332\326\210"
  76      0ABD6012 
  76      7A792798 
  76      2E853ADA 
  76      D688
  77 007f F2020863 		.ascii	"\362\002\010c\2444\216\341\027Z#\314\006\263\227\223"
  77      A4348EE1 
  77      175A23CC 
  77      06B39793 
  78 008f 7DB78C31 		.ascii	"}\267\2141\265\033\353\335g\273\033\254\027R\244\217"
  78      B51BEBDD 
  78      67BB1BAC 
  78      1752A48F 
  79 009f B7B10F38 		.ascii	"\267\261\0178g\315\337(%\343>\347l\215b8\215q\3445\277"
  79      67CDDF28 
  79      25E33EE7 
  79      6C8D6238 
  79      8D71E435 
  80 00b4 2D309B9B 		.ascii	"-0\233\233\341\322\370j\277J(h\020j\236\310\221\011"
  80      E1D2F86A 
  80      BF4A2868 
  80      106A9EC8 
  80      9109
  81 00c6 A0C2436E 		.ascii	"\240\302Cn\254\362\007\257\252\214gr\363\313\257\225"
  81      ACF207AF 
  81      AA8C6772 
  81      F3CBAF95 
  82 00d6 9CAE9362 		.ascii	"\234\256\223b\341\353\357.\315Q\372\2739o\334\006)\261"
  82      E1EBEF2E 
  82      CD51FABB 
  82      396FDC06 
  82      29B1
  83 00e8 22D77DAA 		.ascii	"\"\327}\252\274]tW\211w\354\347\264\347O\3425\274\352"
  83      BC5D7457 
  83      8977ECE7 
  83      B4E74FE2 
  83      35BCEA
  84 00fb 19C9D238 		.ascii	"\031\311\3228\203i\274\203=L1\313\333\260\204\376J\346"
  84      8369BC83 
ARM GAS  C:\Users\IYANG~1.DES\AppData\Local\Temp\ccQxKkVG.s 			page 6


  84      3D4C31CB 
  84      DBB084FE 
  84      4AE6
  85 010d F81F4D6F 		.ascii	"\370\037Moj\341\242#\247\031\020\357J\036\010\202\202"
  85      6AE1A223 
  85      A71910EF 
  85      4A1E0882 
  85      82
  86 011e 42AF7A8F 		.ascii	"B\257z\217\231\340\345\033j\261\024|(vYC!\237h3\213"
  86      99E0E51B 
  86      6AB1147C 
  86      28765943 
  86      219F6833 
  87 0133 F730CE2A 		.ascii	"\3670\316*s<\267\323\306B\"\033\306<\246\331o\034\330"
  87      733CB7D3 
  87      C642221B 
  87      C63CA6D9 
  87      6F1CD8
  88 0146 5EAD56CA 		.ascii	"^\255V\3128\242\365Oo\355f\356\37763\317\333\234\260"
  88      38A2F54F 
  88      6FED66EE 
  88      FF3633CF 
  88      DB9CB0
  89 0159 78652AB3 		.ascii	"xe*\263E\3605\002>\260\370U\322\315\372\275\372v\241"
  89      45F03502 
  89      3EB0F855 
  89      D2CDFABD 
  89      FA76A1
  90 016c 983FDA8A 		.ascii	"\230?\332\212\277^\244&\276\352\300\177h\361\037Ii4"
  90      BF5EA426 
  90      BEEAC07F 
  90      68F11F49 
  90      6934
  91 017e C726273E 		.ascii	"\307&'>\337D\321v\214\311z\272\245\326\216\305[\251"
  91      DF44D176 
  91      8CC97ABA 
  91      A5D68EC5 
  91      5BA9
  92 0190 CED4B5E0 		.ascii	"\316\324\265\340Mx\214\347\342c\354\301'\026\357\251"
  92      4D788CE7 
  92      E263ECC1 
  92      2716EFA9 
  93 01a0 D4BA8C99 		.ascii	"\324\272\214\231\257\347\230 \222t\"\325\334\317\252"
  93      AFE79820 
  93      927422D5 
  93      DCCFAA
  94 01af 9F1009E2 		.ascii	"\237\020\011\342K\215\013\370\214\0170k\016%\355\277"
  94      4B8D0BF8 
  94      8C0F306B 
  94      0E25EDBF 
  95 01bf A2CF5994 		.ascii	"\242\317Y\224u@\372R*\267\365\345G\322\242\207\244;"
  95      7540FA52 
  95      2AB7F5E5 
  95      47D2A287 
  95      A43B
  96 01d1 7C15ACAF 		.ascii	"|\025\254\257\205\277\267%f\303\370\242\331\226\217"
  96      85BFB725 
ARM GAS  C:\Users\IYANG~1.DES\AppData\Local\Temp\ccQxKkVG.s 			page 7


  96      66C3F8A2 
  96      D9968F
  97 01e0 E805F503 		.ascii	"\350\005\365\003R!\371\021*\334d\256%wc\373\376\324"
  97      5221F911 
  97      2ADC64AE 
  97      257763FB 
  97      FED4
  98 01f2 C9D4E8B1 		.ascii	"\311\324\350\261S\251\023C\003#\247G\207S\203\007\007"
  98      53A91343 
  98      0323A747 
  98      87538307 
  98      07
  99 0203 46F6ED19 		.ascii	"F\366\355\031<\262\367\320\341\241]\375\303\360\013"
  99      3CB2F7D0 
  99      E1A15DFD 
  99      C3F00B
 100 0212 AEC91FC7 		.ascii	"\256\311\037\307"
 101              		.text
 102              		.section	.gnu.lto_UART_1_Stop.183f2a54,"",%progbits
 103 0000 789C7D91 		.ascii	"x\234}\221\313+Dq\024\307\317\367\334;\217\262 +Y\311"
 103      CB2B4471 
 103      14C7CFF7 
 103      DC3B8FB2 
 103      202B59C9 
 104 0014 829D52FE 		.ascii	"\202\235R\376\001Y\330\312c#5\211\331\232\022K\2717"
 104      0159D8CA 
 104      63233589 
 104      D99A124B 
 104      B937
 105 0026 A32689C9 		.ascii	"\243&\211\311\243\224W\221\347`fH\026\026n\312\302\306"
 105      A3945791 
 105      E7606648 
 105      16166ECA 
 105      C2C6
 106 0038 2345E4B1 		.ascii	"#E\344\2610\302n\030\341&\215\363\273#B\371\325\375"
 106      30C26E18 
 106      E1268DF3 
 106      BB2342F9 
 106      D5FD
 107 004a FDEEEF7C 		.ascii	"\375\356\357|\277\347sN\347\247\321\337\225/\3371\210"
 107      BFE7734E 
 107      E7A7D1DF 
 107      952FDF31 
 107      88
 108 005b 0AE58446 		.ascii	"\012\345\204F\340\360\036\221\351e@\375\020\250\223"
 108      E0F01E91 
 108      E96540FD 
 108      10A893
 109 006a D1897B7E 		.ascii	"\321\211{~`\204\255\310HV\361\214a\030\311\307\267\274"
 109      6084ADC8 
 109      4856F18C 
 109      6118C9C7 
 109      B7BC
 110 007c EE3C9B89 		.ascii	"\356<\233\211R\234\301`\016\305$\236\207\340\373I\226"
 110      529CC160 
 110      0EC5249E 
 110      87E0FB49 
ARM GAS  C:\Users\IYANG~1.DES\AppData\Local\Temp\ccQxKkVG.s 			page 8


 110      96
 111 008d 3B289E9C 		.ascii	";(\236\234\214\206y\270\005O\321\\\313H\247\327\236"
 111      8C8679B8 
 111      054FD15C 
 111      CB48A7D7 
 111      9E
 112 009e 064345BA 		.ascii	"\006CE\272G#\233\241\253\215(!.U\352\206Y\235\3329\272"
 112      47239BA1 
 112      AB8D2821 
 112      2E55EA86 
 112      599DDA39 
 113 00b3 ACD14BFE 		.ascii	"\254\321K\376\301\262\316\263\035PJ\022~\025\301\002"
 113      C1B2CEB3 
 113      1D504A12 
 113      7E15C102 
 114 00c3 DC526551 		.ascii	"\334ReQvQ&\216\372V\270\343\315\010\031^\2339\305\354"
 114      7651268E 
 114      FA56B8E3 
 114      CD08195E 
 114      9B39C5EC 
 115 00d7 C888A043 		.ascii	"\310\210\240C\212it\206\355\347\236\275\255z\305zaM"
 115      8A697486 
 115      EDE79EBD 
 115      AD7AC57A 
 115      614D
 116 00e9 12C6866E 		.ascii	"\022\306\206n\247q\3076\353\206\0216u\305\270J\354\037"
 116      A771C736 
 116      EB861136 
 116      75C5B84A 
 116      EC1F
 117 00fb 7A9D10A9 		.ascii	"z\235\020\251\353\306pd\3355\216Q3\010\233]XB>\226!"
 117      EBC67064 
 117      DD358E51 
 117      33089B5D 
 117      58423E96 
 118 0110 53C30AC6 		.ascii	"S\303\012\306!\304\256Ww\006\247g\210\273G\373\007."
 118      21C4AE57 
 118      7706A767 
 118      88BB47FB 
 118      072E
 119 0122 958EB42C 		.ascii	"\225\216\264,\017!*n)<\000e\373\017\030\023\240`\224"
 119      0F212A6E 
 119      293C0065 
 119      FB0F1813 
 119      A06094
 120 0135 3999DCA9 		.ascii	"9\231\334\251\375\264_\304f\356\263\235vB\223\237\035"
 120      FDB45FC4 
 120      66EEB39D 
 120      7642939F 
 120      1D
 121 0146 9E5EF74F 		.ascii	"\236^\367O\351\337\204\370\027aU\010\242\233\263\233"
 121      E9DF84F8 
 121      17615508 
 121      A29BB39B 
 122 0156 BD1EA705 		.ascii	"\275\036\247\005\211\255\211r\011\323\212W+\240z\253"
 122      89AD8972 
 122      09D38A57 
ARM GAS  C:\Users\IYANG~1.DES\AppData\Local\Temp\ccQxKkVG.s 			page 9


 122      2BA07AAB 
 123 0166 84C465D2 		.ascii	"\204\304e\3222\367\202J\177\213\277\265\261\315\337"
 123      32F7824A 
 123      7F8BBFB5 
 123      B1CDDF
 124 0175 ECAB09B4 		.ascii	"\354\253\011\264\2676\371\033\252j\002\025e\015u\345"
 124      B736F91B 
 124      AA6A0215 
 124      650D75E5 
 125 0185 D5B5BED2 		.ascii	"\325\265\276\322\222&\372\000\322\245\263h"
 125      9226FA00 
 125      D2A5B368 
 126              		.text
 127              		.section	.gnu.lto_UART_1_SetRxFifoLevel.183f2a54,"",%progbits
 128 0000 789C6551 		.ascii	"x\234eQ\317k\023Q\020~3ow\023\032A\361\244\271X\010"
 128      CF6B1351 
 128      107E336F 
 128      77131A41 
 128      F1A4B958 
 129 0015 A5E841F0 		.ascii	"\245\350A\360\307\037\240\024\354\241\010\325(x(\024"
 129      C71FA014 
 129      ECA108D5 
 129      28782814 
 130 0025 A92B08C1 		.ascii	"\251+\010\301@\250\322[\337\3065h/\206\252P\224\024"
 130      40A8D25B 
 130      DFC63568 
 130      2F86AA50 
 130      9414
 131 0037 44C56A6C 		.ascii	"D\305jl\322\037zhA\330\026\241\305\240\"H,\245\324\034"
 131      D21F7A68 
 131      41D816A1 
 131      C5A02248 
 131      2CA5D41C 
 132 004b 62A91EA4 		.ascii	"b\251\036\244\325\220\232CYg\366\035J\364\301\356\274"
 132      D5909A43 
 132      5967F61D 
 132      4AF4C1EE 
 132      BC
 133 005c 19BEEF9B 		.ascii	"\031\276\357\233o\346I\361\377\211\322w\032\2058F\021"
 133      6FE649F1 
 133      FF89D277 
 133      1A853846 
 133      11
 134 006d A400CC7E 		.ascii	"\244\000\314~\020\302\011#\000_\004\210A\204A\370\216"
 134      10C20923 
 134      005F0488 
 134      418441F8 
 134      8E
 135 007e 9B08592F 		.ascii	"\233\010Y/?\022i\177\252\224\332\370u\177\377\315}\015"
 135      3F12697F 
 135      AA94DAF8 
 135      757FFFCD 
 135      7D0D
 136 0090 A2FD462D 		.ascii	"\242\375F-\003\317\240\235 \353\225[5\2241\020t\237"
 136      03CFA09D 
 136      20EB955B 
 136      35943110 
ARM GAS  C:\Users\IYANG~1.DES\AppData\Local\Temp\ccQxKkVG.s 			page 10


 136      749F
 137 00a2 29D4DE47 		.ascii	")\324\336G\326\261\201\320\312\351\354\360\342\210\305"
 137      D6B181D0 
 137      CAE9ECF0 
 137      E288C5
 138 00b1 291A9CAE 		.ascii	")\032\234\256\215\316\275ii{\254T\332+M\251\023F\003"
 138      8DCEBD69 
 138      697BAC54 
 138      DA2B4DA9 
 138      134603
 139 00c4 258C8124 		.ascii	"%\214\201$=x\016Qx\001QA%\001yhcx\256\\| \345\301@x"
 139      3D780E51 
 139      78015141 
 139      25017968 
 139      6378AE5C 
 140 00de 3C3F57C7 		.ascii	"<?W\307\330#\242Vfn/\354R\213\312\255\370\376\001Vx"
 140      D823A256 
 140      666E2FEC 
 140      528BCAAD 
 140      F8FE0156 
 141 00f3 D9ACA00F 		.ascii	"\331\254\240\017Q6\335\355/\021\313%\353{`\034b\332"
 141      5136DDED 
 141      2F11CB25 
 141      EB7B601C 
 141      62DA
 142 0105 3614C002 		.ascii	"6\024\300\002\012\\)\356\365\224\357O\257\334\033;j"
 142      0A5C29EE 
 142      F594EF4F 
 142      AFDC1B3B 
 142      6A
 143 0116 8449814A 		.ascii	"\204I\201J2\370\033\300\026L2cXAA\210*\221y9\337\020"
 143      32F81BC0 
 143      164C3263 
 143      58414188 
 143      2A917939 
 144 012c 39CA6598 		.ascii	"9\312e\230\257\017\255\226\272Yo\013yS\263\333\205Q"
 144      AF0FAD96 
 144      BA596F0B 
 144      7953B3DB 
 144      8551
 145 013e 936735DD 		.ascii	"\223g5\335L\326\011\346\375Z\375\370)\034\224\002C\345"
 145      4CD609E6 
 145      FD5AFDF8 
 145      291C9402 
 145      43E5
 146 0150 89A58550 		.ascii	"\211\245\205P\016\036:\256\343\035j\240\005E\262<\301"
 146      0E1E3AAE 
 146      E31D6AA0 
 146      0545B23C 
 146      C1
 147 0161 96611272 		.ascii	"\226a\022r \312\220Vg\002\203\324\222D\3052\334\370"
 147      20CA9056 
 147      670283D4 
 147      9244C532 
 147      DCF8
 148 0173 93F9D1A5 		.ascii	"\223\371\321\245{H\335\346\311\317\327wB\254il\370\276"
 148      7B48DDE6 
ARM GAS  C:\Users\IYANG~1.DES\AppData\Local\Temp\ccQxKkVG.s 			page 11


 148      C9CFD777 
 148      42AC696C 
 148      F8BE
 149 0185 BF5BC014 		.ascii	"\277[\300\024\011\224\001wxR\363\352\245\013\232hn\241"
 149      09940177 
 149      7852F3EA 
 149      A50B9A68 
 149      6EA1
 150 0197 41C4A54A 		.ascii	"A\304\245J\372]\3604\006\221\246\211D\250Z\346-j\220"
 150      FA5DF034 
 150      0691A689 
 150      44A85AE6 
 150      2D6A90
 151 01aa C6C96625 		.ascii	"\306\311f%\2130\363\303\223\325\317!\256\3753\201\331"
 151      8B30F3C3 
 151      93D5CF21 
 151      AEFD3381 
 151      D9
 152 01bb 3CC12B9A 		.ascii	"<\301+\232\200\031\253\340xw\343\214\347g\250\"\360"
 152      8019ABE0 
 152      7877E38C 
 152      E767A822 
 152      F0
 153 01cc BA6879AD 		.ascii	"\272hy\255\235\366U;u\261\337\276\324\033O^K\365\331"
 153      9DF6553B 
 153      75B1DFBE 
 153      D41B4F5E 
 153      4BF5D9
 154 01df 3DDDF164 		.ascii	"=\335\361d\307\361\236\363'\317\236\353=r\270O\230\011"
 154      C7F19EF3 
 154      27CF9EEB 
 154      3D72B84F 
 154      9809
 155 01f1 FBBA9D68 		.ascii	"\373\272\235hI\015\234\272r9\331\321\237J\374\005]q"
 155      490D9CBA 
 155      7239D9D1 
 155      9F4AFC05 
 155      5D71
 156 0203 DDA9     		.ascii	"\335\251"
 157              		.text
 158              		.section	.gnu.lto_UART_1_SetTxFifoLevel.183f2a54,"",%progbits
 159 0000 789C6551 		.ascii	"x\234eQAh\023Q\020\3753\377\35766\202\342Is\261\020"
 159      41681351 
 159      10FD33FF 
 159      EF363682 
 159      E24973B1 
 160 0015 4AD18320 		.ascii	"J\321\203 z\026\245\240'\245\032\005\017\205\"u\005"
 160      7A16A5A0 
 160      27A51A05 
 160      0F852275 
 160      05
 161 0026 21180851 		.ascii	"!\030\010Q\274\365o\\\213z1F\017\205\022ET\264V\023"
 161      BCF56F5C 
 161      8B7A3146 
 161      0F851245 
 161      54B45613 
 162 003a AD7AB020 		.ascii	"\255z\260 \254E1(F\004\251\322C\315!\226\326\203$6Z"
ARM GAS  C:\Users\IYANG~1.DES\AppData\Local\Temp\ccQxKkVG.s 			page 12


 162      AC453128 
 162      4604A9D2 
 162      43CD2196 
 162      D6832436 
 163 004f 43D57566 		.ascii	"C\325uf\377A\242\037v\347\317\360\336\2337\363\245\370"
 163      FF41A21F 
 163      76E7CFF0 
 163      DE9B37F3 
 163      A5F8
 164 0061 FFC4E8DB 		.ascii	"\377\304\350\333\215Bl\241\010R\000\346*B\270\021\004"
 164      8D426CA1 
 164      085200E6 
 164      2A42B811 
 164      04
 165 0072 E08B0031 		.ascii	"\340\213\0001\2040\004\013\330@\310\371\343#\321\236"
 165      8430040B 
 165      D840C8F9 
 165      E323D19E 
 166 0082 1B5AEB7A 		.ascii	"\033Z\353z\266\260\356\364\332\026\321\026\321\310\300"
 166      B6B0EEF4 
 166      DA16D116 
 166      D1C8C0
 167 0091 4DE821C8 		.ascii	"M\350!\310|\365L\023e\034\004\335\037\027\233\257\243"
 167      7CF54C13 
 167      651C04DD 
 167      1F179BAF 
 167      A3
 168 00a2 F3D842E8 		.ascii	"\363\330B\350\342t2_\036\2619E\305\351\334\345\247O"
 168      E274325F 
 168      1EB13945 
 168      C5E9DCE5 
 168      A74F
 169 00b4 3ABBAF69 		.ascii	":\273\257i\235\365_M\350\355\252\205\022n\201$=\030"
 169      9DF55F4D 
 169      E8EDAA85 
 169      126E8124 
 169      3D18
 170 00c6 8318DC86 		.ascii	"\203\030\334\206\230\240\222\200q\350f\370rqV\333rC"
 170      98A09280 
 170      71E866F8 
 170      727156DB 
 170      7243
 171 00d8 287C6539 		.ascii	"(|e9\177Q\306\257\022\265\372\371\354\213\225\272\254"
 171      7F51C6AF 
 171      12B5FAF9 
 171      EC8B95BA 
 171      AC
 172 00e9 BD6A10AC 		.ascii	"\275j\020\254g\205;\355\012\346\020\245\341\375z\037"
 172      67853BED 
 172      0AE610A5 
 172      E1FD7A1F 
 173 00f9 B53DB2BE 		.ascii	"\265=\262\276\032\356B\334\330\206\"\330@\201+\2455"
 173      1AEE42DC 
 173      D88622D8 
 173      40812BA5 
 173      35
 174 010a BE0E82C5 		.ascii	"\276\016\202\305\346\245\3626\025!\005*\311\360\257"
ARM GAS  C:\Users\IYANG~1.DES\AppData\Local\Temp\ccQxKkVG.s 			page 13


 174      E6A5F236 
 174      1521052A 
 174      C9F0AF
 175 0119 802D5864 		.ascii	"\200-XdF\331aA\210\032\221y9\237\0209\312\031\230\372"
 175      46D96141 
 175      881A9179 
 175      399F1039 
 175      CA1998FA 
 176 012d 7E6EAED2 		.ascii	"~n\256\322\307zK\310\233\2720:6\251xV\313\363rn8\357"
 176      C77A4BC8 
 176      9BBA303A 
 176      36A97856 
 176      CBF3726E 
 177 0143 C7DA9BB7 		.ascii	"\307\332\233\267\221\260\024\032z^Z\250\257(\300\250"
 177      91B0141A 
 177      7A5E5AA8 
 177      AF28C0A8 
 178 0153 EBB9FEC6 		.ascii	"\353\271\376\306\026\332P\"\313\367\3302\334\207\002"
 178      16DA5022 
 178      CBF7D832 
 178      DC8702
 179 0162 8869C8EA 		.ascii	"\210i\310\352\275\241AjI\242b\006N\375\030\376\272\307"
 179      BDA1416A 
 179      49A26206 
 179      4EFD18FE 
 179      BAC7
 180 0174 F490A6CD 		.ascii	"\364\220\246\315\365/\217\316w\260\246\252\007A\260"
 180      F52F8FCE 
 180      77B0A6AA 
 180      0741B0
 181 0183 4AC00409 		.ascii	"J\300\004\011L\003\376\345I\303\373]9h\210\326\022*"
 181      4C03FEE5 
 181      49C3FB5D 
 181      396888D6 
 181      122A
 182 0195 227EA866 		.ascii	"\"~\250f_\206O\243\210\364\200H\204j\016?C\00328\331"
 182      5F864FA3 
 182      88F48048 
 182      846A0E3F 
 182      43033238 
 183 01aa AE641366 		.ascii	"\256d\023f*\337\370\371\256\203k\377L`\265O\360\220"
 183      2ADFF8F9 
 183      AE836BFF 
 183      4C60B54F 
 183      F090
 184 01bc 2660C62C 		.ascii	"&`\306,\270\376\267\004\343\371\031j\010\274.Z^\327"
 184      B8FEB704 
 184      E3F9196A 
 184      08BC2E5A 
 184      5ED7
 185 01ce 2EE79893 		.ascii	".\347\230\223>\224q\016\017$R\307\323\203N\177_\"\325"
 185      3E94710E 
 185      0F2452C7 
 185      D3834E7F 
 185      5F22D5
 186 01e1 BBB5FFC0 		.ascii	"\273\265\377\300\216}\373\0076o\032\024V\3229\341$;"
 186      8E7DFB07 
ARM GAS  C:\Users\IYANG~1.DES\AppData\Local\Temp\ccQxKkVG.s 			page 14


 186      366F1A14 
 186      56D239E1 
 186      243B
 187 01f3 3327771E 		.ascii	"3'w\036=\222\352\315\244\223\177\000\236c\336\257"
 187      3D92EACD 
 187      A4937F00 
 187      9E63DEAF 
 188              		.text
 189              		.section	.gnu.lto_.symbol_nodes.183f2a54,"",%progbits
 190 0000 789C55CB 		.ascii	"x\234U\313\273\015\002A\014\204\341\337\366\356\335"
 190      BB0D0241 
 190      0C84E1DF 
 190      F6EEDD
 191 000f 1E125002 		.ascii	"\036\022P\002M\320\337\\\200\210\251\000\201D\011\224"
 191      4DD0DF5C 
 191      8088A900 
 191      81440994 
 192 001f 404C0D20 		.ascii	"@L\015 \021R\003\342x\004\273N\254o\354\011\340\302"
 192      115203E2 
 192      7804BB4E 
 192      AC6FEC09 
 192      E0C2
 193 0031 7F3C0976 		.ascii	"\177<\011vW\220\330\037\012\236e\215;y\355\354\034]"
 193      5790D81F 
 193      0A9E658D 
 193      3B79EDEC 
 193      1C5D
 194 0043 78AF68DE 		.ascii	"x\257h\336\212R\343A\271\251\205}j6W\367\213\031\307"
 194      8A52E341 
 194      B9A9857D 
 194      6A3657F7 
 194      8B19C7
 195 0056 822DD4D7 		.ascii	"\202-\324\327\\\252T\014\012\247\333\313\302\0066\367"
 195      5CAA540C 
 195      0AA7DBCB 
 195      C20636F7 
 196 0066 697BE171 		.ascii	"i{\341q^\207O\334>W\221f\3373o\037\2412!"
 196      5E874FDC 
 196      3E579166 
 196      DF336F1F 
 196      A13221
 197              		.text
 198              		.section	.gnu.lto_.refs.183f2a54,"",%progbits
 199 0000 789C6366 		.ascii	"x\234cf``\340d\200\000&&\006fFFf\026\006\000\001;\000"
 199      6060E064 
 199      80002626 
 199      06664646 
 199      66160600 
 200 0017 1D       		.ascii	"\035"
 201              		.text
 202              		.section	.gnu.lto_.decls.183f2a54,"",%progbits
 203 0000 789C9555 		.ascii	"x\234\225UkLSW\034\277\347\236R\240\224\342L\206\206"
 203      6B4C5357 
 203      1CBFE79E 
 203      52A094E2 
 203      4C8686
 204 0013 2F2B3121 		.ascii	"/+1!Y\".\352b\366m[\334\346\314\346\322\011\370E\027"
ARM GAS  C:\Users\IYANG~1.DES\AppData\Local\Temp\ccQxKkVG.s 			page 15


 204      59222EEA 
 204      62F66D5B 
 204      DCE6CCE6 
 204      D209F845 
 205 0028 82D86D64 		.ascii	"\202\330md\006\014\226E\277\035\351\004\302\026\243"
 205      060C9645 
 205      BF1DE904 
 205      C216A3
 206 0037 0D08381E 		.ascii	"\015\0108\036\2350\005\264\2452\007\310\303\002uR\036"
 206      9D3005B4 
 206      A53207C8 
 206      C3027552 
 206      1E
 207 0048 BE180F19 		.ascii	"\276\030\017\031\330\002\306\204(\323\252\304\340\\"
 207      D802C684 
 207      28D3AAC4 
 207      E05C
 208 0056 ECFEE771 		.ascii	"\354\376\347q\351-c\313v\222\177\271\347\334\363\373"
 208      E92D63CB 
 208      76927FB9 
 208      E7DCF3FB 
 209 0066 FDFECF0B 		.ascii	"\375\376\317\013\226$i\036IR\020\326\352HI\312\203g"
 209      9624691E 
 209      495210D6 
 209      EA4849CA 
 209      8367
 210 0078 F82399A4 		.ascii	"\370#\231\244\320\212\006;\017\346\004s\2015\203u\200"
 210      D08A063B 
 210      0FE60473 
 210      81358375 
 210      80
 211 0089 7581B9C1 		.ascii	"u\201\271\301z\300<`2\330 \330\250\024\276(\026\013"
 211      7AC03C60 
 211      32D820D8 
 211      A814BE28 
 211      160B
 212 009b CE31B006 		.ascii	"\3161\260\006q.\213wn\351\357\213ji\005&\021l\022lb"
 212      712E8B77 
 212      6EE9EF8B 
 212      6A690526 
 212      116C126C 
 213 00b0 191E8B7B 		.ascii	"\031\036\213{w\204\017\313\227K\370N9\342\005\217\017"
 213      77840FCB 
 213      974BF84E 
 213      39E2058F 
 213      0F
 214 00c1 AC4FC5A3 		.ascii	"\254O\305\243\360JB\317\245\362I\315\215Dl\352\325\274"
 214      F04A42CF 
 214      A5F249CD 
 214      8D446CEA 
 214      D5BC
 215 00d3 CCC79538 		.ascii	"\314\307\2258\261\2707-r\264|\321<*\3716\200\351\301"
 215      B1B8372D 
 215      72B47CD1 
 215      3C2AF936 
 215      80E9C1
 216 00e6 5A97C52C 		.ascii	"Z\227\305,\011\375\216\025\360]\377\003\337\265\002"
ARM GAS  C:\Users\IYANG~1.DES\AppData\Local\Temp\ccQxKkVG.s 			page 16


 216      09FD8E15 
 216      F05DFF03 
 216      DFB502
 217 00f5 FEB18C2E 		.ascii	"\376\261\214.9\027\256\305\314\311\310\2403\322m\273"
 217      3917AEC5 
 217      CCC9C8A0 
 217      33D26DBB 
 218 0105 CD5BAE85 		.ascii	"\315[\256\205\255^\247\241\333\216\027\263#\2325\245"
 218      AD5EA7A1 
 218      DB8E17B3 
 218      239A35A5 
 219 0115 04D6712B 		.ascii	"\004\326q+Y\245A\246xt\026%\240z\224\000\254\015h\015"
 219      59A541A6 
 219      78741625 
 219      A07A9400 
 219      AC0D680D 
 220 0129 FCEED670 		.ascii	"\374\356\326p&\357\275\221\313\006,#\372\\[>3\242[\337"
 220      26EFBD91 
 220      CB062C23 
 220      FA5C5B3E 
 220      33A25BDF 
 221 013d 08B022D2 		.ascii	"\010\260\"\322\035@!\271\243M\363\371\261\306j2\355"
 221      1D4021B9 
 221      A34DF3F9 
 221      B1C66A32 
 221      ED
 222 014e 0A389E15 		.ascii	"\0128\236\025\342\012b\317'/\203A$S2\324\2100:\207\326"
 222      E20A62CF 
 222      272F8341 
 222      245332D4 
 222      88303A87 
 223 0163 3397E199 		.ascii	"3\227\341\231\373~\036\031\001x\177\274\370C\274\205"
 223      FB7E1E19 
 223      01787FBC 
 223      F843BC85 
 224 0173 914F791E 		.ascii	"\221Oy\036\331#\030\207}\362G\255\227t\007\203n\202"
 224      D9231887 
 224      7DF247AD 
 224      97740783 
 224      6E82
 225 0185 18814345 		.ascii	"\030\201CE\340P\010\234\214\240\330_\324f\300\3571\206"
 225      E050089C 
 225      8CA0D85F 
 225      D466C0EF 
 225      3186
 226 0197 A32D4F0B 		.ascii	"\243-O\013\015\300`w\331\033\317r\206\267\031\276I\205"
 226      0DC06077 
 226      D91BCF72 
 226      86B719BE 
 226      4985
 227 01a9 6F52F02E 		.ascii	"oR\360.\206\257\271~\273 \016\177\312\360\307z\334\017"
 227      86AFB97E 
 227      BB200E7F 
 227      CAF0C77A 
 227      DC0F
 228 01bb 2339DE1F 		.ascii	"#9\336\037\206\277\240\302_P\360\315\014?s{\2743\022"
 228      86BFA0C2 
ARM GAS  C:\Users\IYANG~1.DES\AppData\Local\Temp\ccQxKkVG.s 			page 17


 228      5F50F0CD 
 228      0C3F737B 
 228      BC3312
 229 01ce 7FC6F047 		.ascii	"\177\306\360G\316t|\027\011YN\324\261\244\370\277\177"
 229      CE747C17 
 229      09594ED4 
 229      B1A4F8BF 
 229      7F
 230 01df 5E17CDB6 		.ascii	"^\027\315\266t\020\343\340H\356\350\265\335\322\241"
 230      7410E3E0 
 230      48EEE8B5 
 230      DDD2A1
 231 01ee 245D1DA4 		.ascii	"$]\035\24400\344q~d%\357\240V\244C?-)04]E\204\344\323"
 231      3030E471 
 231      7E6425EF 
 231      A056A443 
 231      3F2D2930 
 232 0208 F2447B0D 		.ascii	"\362D{\015\322RuP\013J\202\033\354.\272\010\207?\303"
 232      D2527550 
 232      0B4A821B 
 232      EC2EBA08 
 232      873FC3
 233 021b 21689DAA 		.ascii	"!h\235\252\230 H\003\303\307\330v\263*\317\335\354L"
 233      98204803 
 233      C3C7D876 
 233      B32ACFDD 
 233      EC4C
 234 022d FEC7225F 		.ascii	"\376\307\"_bEnC\242\312N\267w\001\343\002\304\342p\236"
 234      62456E43 
 234      A2CA4EB7 
 234      7701E302 
 234      C4E2709E 
 235 0241 B6DD8861 		.ascii	"\266\335\210ay\0108|\266P5\031\012\265\253\222\321\256"
 235      7908387C 
 235      B6503519 
 235      0AB5AB92 
 235      D1AE
 236 0253 24A38325 		.ascii	"$\243\203%\243=8\223\214+9\311\305\266\223\201X\236"
 236      A33D3893 
 236      8C2B39C9 
 236      C5B69381 
 236      589E
 237 0265 CCB90625 		.ascii	"\314\271\006%\231\024\337\251\302w*\370.\206\257\362"
 237      9914DFA9 
 237      C2772AF8 
 237      2E86AFF2 
 238 0275 B5546B71 		.ascii	"\265Tkq3'\230\367\226T\313\264\037H\240\270\360\276"
 238      332798F7 
 238      9654CBB4 
 238      1F48A0B8 
 238      F0BE
 239 0287 E984F578 		.ascii	"\351\204\365x\035\231\016\006_c\015\212.\253X.+,n\306"
 239      1D990E06 
 239      5F630D8A 
 239      2EAB582E 
 239      2B2C6EC6 
 240 029b 72E6D1F4 		.ascii	"r\346\321\364M=\016p\226gS\005\205\2543\311t\245\307"
ARM GAS  C:\Users\IYANG~1.DES\AppData\Local\Temp\ccQxKkVG.s 			page 18


 240      4D3D0E70 
 240      96675305 
 240      85AC33C9 
 240      74A5C7
 241 02ae DCFB0DF9 		.ascii	"\334\373\015\3713\030\304\234\242[E\321\255P\3640\212"
 241      3318C49C 
 241      A25B45D1 
 241      AD50F430 
 241      8A
 242 02bf 27F3A341 		.ascii	"'\363\243A-.\340]\177i\264j*\212Q\330\253j\013\214\252"
 242      2D2EE05D 
 242      7F69B46A 
 242      2A8A51D8 
 242      AB6A0B8C 
 243 02d4 BEE85531 		.ascii	"\276\350U1\364*\014\036\3060\346.,\214\302'\345\260"
 243      F42A0C1E 
 243      C630E62E 
 243      2C8CC227 
 243      E5B0
 244 02e6 C688E78D 		.ascii	"\306\210\347\215ql\360T\017f\333 }-OL\224<\307H\227"
 244      716CF054 
 244      0F66DB20 
 244      7D2D4F4C 
 244      943CC748 
 245 02fb C42A1EB0 		.ascii	"\304*\036\260\021\274VB\353\023\320\353Pn/\224;^\224"
 245      11BC5642 
 245      EB13D0EB 
 245      506E2F94 
 245      3B5E94
 246 030e FB1728DE 		.ascii	"\373\027(\336U(\036o\036+o\236>(\367\225P\363\304\353"
 246      55281E6F 
 246      1E2B6F9E 
 246      3E28F795 
 246      50F3C4EB 
 247 0322 966672D1 		.ascii	"\226fr\321\372\2445\006Wr\017^N\272Z\351\007\000\256"
 247      FAA43506 
 247      57720F5E 
 247      4EBA5AE9 
 247      0700AE
 248 0335 B3978DED 		.ascii	"\263\227\215\355\255\255\206u?\020\373\351\200c\370"
 248      ADAD8675 
 248      3F10FBE9 
 248      8063F8
 249 0344 2A2E83E0 		.ascii	"*.\203\340\010\241a1\302~N(\234\220\350\036~\007h\377"
 249      08A16131 
 249      C27E4E28 
 249      9C90E81E 
 249      7E0768FF 
 250 0358 0DA27500 		.ascii	"\015\242u\000\037\234]|\252g\237\227U\254\373\306\357"
 250      1F9C5D7C 
 250      AA679F97 
 250      55ACFBC6 
 250      EF
 251 0369 2D60F679 		.ascii	"-`\366y\221\351\266\352\311\303\316h|.<v#\027.{\260"
 251      91E9B6EA 
 251      C9C3CE68 
 251      7C2E3C76 
ARM GAS  C:\Users\IYANG~1.DES\AppData\Local\Temp\ccQxKkVG.s 			page 19


 251      23172E7B 
 252 037e 78318A6D 		.ascii	"x1\212mi\035 \370\027w\235g\265K#Q\313\243\032\006'"
 252      691D20F8 
 252      17779D67 
 252      B54B2351 
 252      CBA31A06 
 253 0393 AE87A232 		.ascii	"\256\207\2422\252G\202XID=\214\304\020\244\343\032u"
 253      AA478258 
 253      49443D8C 
 253      C410A4E3 
 253      1A75
 254 03a5 E916E4C8 		.ascii	"\351\026\344\310(rt\003\016o\362\221h\362xj4\270\231"
 254      28727403 
 254      0E6FF291 
 254      68F2786A 
 254      34B899
 255 03b8 7BF1BC62 		.ascii	"{\361\274bp\226:<,\342\357\234r\014\305\210\370\027"
 255      70963A3C 
 255      2CE2EF9C 
 255      720CC588 
 255      F817
 256 03ca 0A0CE5C4 		.ascii	"\012\014\345\304~D\304O\245\177\025\361+\022\022=\201"
 256      7E44C44F 
 256      A57F15F1 
 256      2B12123D 
 256      81
 257 03db DF112A37 		.ascii	"\337\021*7\3122\340+\357.\326\350\213C3\312\032\"4_"
 257      CA32E02B 
 257      EF2ED6E8 
 257      8B4333CA 
 257      1A22345F 
 258 03ef 6348AF78 		.ascii	"cH\257x\017\217\000(\262\265<\210\300W\270;\303\245"
 258      0F8F0028 
 258      B2B53C88 
 258      C057B83B 
 258      C3A5
 259 0401 8F6BA274 		.ascii	"\217k\242tE4\226\3778\341\362\267\213s\217\015\274I"
 259      453496FF 
 259      38E1F2B7 
 259      8B738F0D 
 259      BC49
 260 0413 5600FDB6 		.ascii	"V\000\375\266\002H\364\311]}?!Qh\002\342\032\017\245"
 260      0248F4C9 
 260      5D7D3F21 
 260      516802E2 
 260      1A0FA5
 261 0426 F4360A75 		.ascii	"\3646\012uJ[\377\205Y9,\026z9\024\313$\322\263\316\236"
 261      4A5BFF85 
 261      59392C16 
 261      7A3914CB 
 261      24D2B3CE 
 262 043b 648194D4 		.ascii	"d\201\224\324\375~#\032\017\360@<\245\305>\372\251\350"
 262      FD7E231A 
 262      0FF0403C 
 262      A5C53EFA 
 262      A9E8
 263 044d 864FC51F 		.ascii	"\206O\305\037\343\206e\037\376)\325|L)\363q\207\315"
ARM GAS  C:\Users\IYANG~1.DES\AppData\Local\Temp\ccQxKkVG.s 			page 20


 263      E386651F 
 263      FE29D57C 
 263      4C29F371 
 263      87CD
 264 045f 475975E0 		.ascii	"GYu\340Et\230f_\230\246Oh\372\230f}u\335\011\015\276"
 264      45749866 
 264      5F98A64F 
 264      68FA9866 
 264      7D75DD09 
 265 0475 CB35FDFE 		.ascii	"\3135\375\376\301#qL\323>\340\010\377G\341W\011\372"
 265      C123714C 
 265      D33EE008 
 265      FF47E157 
 265      09FA
 266 0487 15C16964 		.ascii	"\025\301id\224b\322\336\335\231\232\2761}{v\226E\273"
 266      9462D2DE 
 266      DD999ABE 
 266      317D7B76 
 266      9645BB
 267 049a ED9334E3 		.ascii	"\355\2234\343V\311\270\315\234m\316\315\260\230\367"
 267      56C9B8CD 
 267      9C6DCECD 
 267      B098F7
 268 04a9 A5A7E4E4 		.ascii	"\245\247\344\344\345f\232\367\230Rr\266\276\271\207"
 268      E5669AF7 
 268      985272B6 
 268      BEB987
 269 04b8 DFDC9029 		.ascii	"\337\334\220)\305\012\314\373\331\031{\367\233\365b"
 269      C50ACCFB 
 269      D9197BF7 
 269      9BF562
 270 04c7 9762C9C8 		.ascii	"\227b\311\310\265\304,mr\016h\363\262\262-\2337%\256"
 270      B5C42C6D 
 270      720E68F3 
 270      B2B22D9B 
 270      3725AE
 271 04da 4CF746E6 		.ascii	"L\367F\346a\313\341\003\346\203\033\276\224^U@f\313"
 271      61CBE103 
 271      E6831BBE 
 271      945E5540 
 271      66CB
 272 04ec CE431F64 		.ascii	"\316C\037d}\236\363\261\371k\363~\325ij\3504N\234\246"
 272      7D9EF3B1 
 272      F96BF37E 
 272      D5696AE8 
 272      344E9CA6 
 273 0500 8118F539 		.ascii	"\201\030\3659\371_\235MO1mOg\217\246]\251*%\2126\345"
 273      F95F9D4D 
 273      4F316D4F 
 273      678FA65D 
 273      A92A258A 
 274 0516 1CB4F008 		.ascii	"\034\264\360\010\324\234\324\361\010\352\370[\006q\232"
 274      D49CD4F1 
 274      08EAF85B 
 274      06719A
 275 0525 052ABB32 		.ascii	"\005*\2732rY4\033\267\274\262\224/Kn\352\241\035\031"
 275      7259341B 
ARM GAS  C:\Users\IYANG~1.DES\AppData\Local\Temp\ccQxKkVG.s 			page 21


 275      B7BCB294 
 275      2F4B6EEA 
 275      A11D19
 276 0538 07BF8AC8 		.ascii	"\007\277\212\3105\177\261y\323ZE0s\357\216\234}\346"
 276      357FB179 
 276      D35A4530 
 276      73EF8E9C 
 276      7DE6
 277 054a 10F9EAF0 		.ascii	"\020\371\352\360\027\224\377/(4\357\345"
 277      1794FF2F 
 277      2834EFE5 
 278              		.text
 279              		.section	.gnu.lto_.symtab.183f2a54,"",%progbits
 280 0000 55415254 		.ascii	"UART_1_Init\000\000\000\000\000\000\000\000\000\000"
 280      5F315F49 
 280      6E697400 
 280      00000000 
 280      00000000 
 281 0015 0000AC00 		.ascii	"\000\000\254\000\000\000UART_1_Enable\000\000\000\000"
 281      00005541 
 281      52545F31 
 281      5F456E61 
 281      626C6500 
 282 002c 00000000 		.ascii	"\000\000\000\000\000\000\000\000\256\000\000\000UAR"
 282      00000000 
 282      AE000000 
 282      554152
 283 003b 545F315F 		.ascii	"T_1_Start\000\000\000\000\000\000\000\000\000\000\000"
 283      53746172 
 283      74000000 
 283      00000000 
 283      00000000 
 284 004f 00B00000 		.ascii	"\000\260\000\000\000UART_1_initVar\000\000\000\000\000"
 284      00554152 
 284      545F315F 
 284      696E6974 
 284      56617200 
 285 0067 00000000 		.ascii	"\000\000\000\000\000\000\000\313\000\000\000UART_1_"
 285      000000CB 
 285      00000055 
 285      4152545F 
 285      315F
 286 0079 53746F70 		.ascii	"Stop\000\000\000\000\000\000\000\000\000\000\000\000"
 286      00000000 
 286      00000000 
 286      00000000 
 287 0089 B2000000 		.ascii	"\262\000\000\000UART_1_SetRxFifoLevel\000\000\000\000"
 287      55415254 
 287      5F315F53 
 287      65745278 
 287      4669666F 
 288 00a6 00000000 		.ascii	"\000\000\000\000\000\000\000\000\273\000\000\000UAR"
 288      00000000 
 288      BB000000 
 288      554152
 289 00b5 545F315F 		.ascii	"T_1_SetTxFifoLevel\000\000\000\000\000\000\000\000\000"
 289      53657454 
ARM GAS  C:\Users\IYANG~1.DES\AppData\Local\Temp\ccQxKkVG.s 			page 22


 289      78466966 
 289      6F4C6576 
 289      656C0000 
 290 00d0 000000BD 		.ascii	"\000\000\000\275\000\000\000UART_1_IntrTxMask\000\000"
 290      00000055 
 290      4152545F 
 290      315F496E 
 290      74725478 
 291 00ea 00000000 		.ascii	"\000\000\000\000\000\000\000\000\000\000\325\000\000"
 291      00000000 
 291      0000D500 
 291      00
 292 00f7 00554152 		.ascii	"\000UART_1_UartInit\000\000\002\000\000\000\000\000"
 292      545F315F 
 292      55617274 
 292      496E6974 
 292      00000200 
 293 010f 00000000 		.ascii	"\000\000\000\000\277\000\000\000UART_1_UartPostEnab"
 293      BF000000 
 293      55415254 
 293      5F315F55 
 293      61727450 
 294 012a 6C650000 		.ascii	"le\000\000\002\000\000\000\000\000\000\000\000\000\301"
 294      02000000 
 294      00000000 
 294      0000C1
 295 0139 00000055 		.ascii	"\000\000\000UART_1_UartStop\000\000\002\000\000\000"
 295      4152545F 
 295      315F5561 
 295      72745374 
 295      6F700000 
 296 0151 00000000 		.ascii	"\000\000\000\000\000\000\303\000\000\000"
 296      0000C300 
 296      0000
 297              		.text
 298              		.section	.gnu.lto_.opts,"",%progbits
 299 0000 272D666E 		.ascii	"'-fno-trapv' '-mcpu=cortex-m0' '-mthumb' '-g' '-O3'"
 299      6F2D7472 
 299      61707627 
 299      20272D6D 
 299      6370753D 
 300 0033 20272D66 		.ascii	" '-ffunction-sections' '-finline-functions' '-flto'"
 300      66756E63 
 300      74696F6E 
 300      2D736563 
 300      74696F6E 
 301 0066 20272D66 		.ascii	" '-ffat-lto-objects'\000"
 301      6661742D 
 301      6C746F2D 
 301      6F626A65 
 301      63747327 
 302              		.text
 303              		.cfi_sections	.debug_frame
 304              		.section	.text.UART_1_Init,"ax",%progbits
 305              		.align	2
 306              		.global	UART_1_Init
 307              		.code	16
ARM GAS  C:\Users\IYANG~1.DES\AppData\Local\Temp\ccQxKkVG.s 			page 23


 308              		.thumb_func
 309              		.type	UART_1_Init, %function
 310              	UART_1_Init:
 311              	.LFB2:
 312              		.file 1 "Generated_Source\\PSoC4\\UART_1.c"
   1:Generated_Source\PSoC4/UART_1.c **** /***************************************************************************//**
   2:Generated_Source\PSoC4/UART_1.c **** * \file UART_1.c
   3:Generated_Source\PSoC4/UART_1.c **** * \version 3.20
   4:Generated_Source\PSoC4/UART_1.c **** *
   5:Generated_Source\PSoC4/UART_1.c **** * \brief
   6:Generated_Source\PSoC4/UART_1.c **** *  This file provides the source code to the API for the SCB Component.
   7:Generated_Source\PSoC4/UART_1.c **** *
   8:Generated_Source\PSoC4/UART_1.c **** * Note:
   9:Generated_Source\PSoC4/UART_1.c **** *
  10:Generated_Source\PSoC4/UART_1.c **** *******************************************************************************
  11:Generated_Source\PSoC4/UART_1.c **** * \copyright
  12:Generated_Source\PSoC4/UART_1.c **** * Copyright 2013-2016, Cypress Semiconductor Corporation.  All rights reserved.
  13:Generated_Source\PSoC4/UART_1.c **** * You may use this file only in accordance with the license, terms, conditions,
  14:Generated_Source\PSoC4/UART_1.c **** * disclaimers, and limitations in the end user license agreement accompanying
  15:Generated_Source\PSoC4/UART_1.c **** * the software package with which this file was provided.
  16:Generated_Source\PSoC4/UART_1.c **** *******************************************************************************/
  17:Generated_Source\PSoC4/UART_1.c **** 
  18:Generated_Source\PSoC4/UART_1.c **** #include "UART_1_PVT.h"
  19:Generated_Source\PSoC4/UART_1.c **** 
  20:Generated_Source\PSoC4/UART_1.c **** #if (UART_1_SCB_MODE_I2C_INC)
  21:Generated_Source\PSoC4/UART_1.c ****     #include "UART_1_I2C_PVT.h"
  22:Generated_Source\PSoC4/UART_1.c **** #endif /* (UART_1_SCB_MODE_I2C_INC) */
  23:Generated_Source\PSoC4/UART_1.c **** 
  24:Generated_Source\PSoC4/UART_1.c **** #if (UART_1_SCB_MODE_EZI2C_INC)
  25:Generated_Source\PSoC4/UART_1.c ****     #include "UART_1_EZI2C_PVT.h"
  26:Generated_Source\PSoC4/UART_1.c **** #endif /* (UART_1_SCB_MODE_EZI2C_INC) */
  27:Generated_Source\PSoC4/UART_1.c **** 
  28:Generated_Source\PSoC4/UART_1.c **** #if (UART_1_SCB_MODE_SPI_INC || UART_1_SCB_MODE_UART_INC)
  29:Generated_Source\PSoC4/UART_1.c ****     #include "UART_1_SPI_UART_PVT.h"
  30:Generated_Source\PSoC4/UART_1.c **** #endif /* (UART_1_SCB_MODE_SPI_INC || UART_1_SCB_MODE_UART_INC) */
  31:Generated_Source\PSoC4/UART_1.c **** 
  32:Generated_Source\PSoC4/UART_1.c **** 
  33:Generated_Source\PSoC4/UART_1.c **** /***************************************
  34:Generated_Source\PSoC4/UART_1.c **** *    Run Time Configuration Vars
  35:Generated_Source\PSoC4/UART_1.c **** ***************************************/
  36:Generated_Source\PSoC4/UART_1.c **** 
  37:Generated_Source\PSoC4/UART_1.c **** /* Stores internal component configuration for Unconfigured mode */
  38:Generated_Source\PSoC4/UART_1.c **** #if (UART_1_SCB_MODE_UNCONFIG_CONST_CFG)
  39:Generated_Source\PSoC4/UART_1.c ****     /* Common configuration variables */
  40:Generated_Source\PSoC4/UART_1.c ****     uint8 UART_1_scbMode = UART_1_SCB_MODE_UNCONFIG;
  41:Generated_Source\PSoC4/UART_1.c ****     uint8 UART_1_scbEnableWake;
  42:Generated_Source\PSoC4/UART_1.c ****     uint8 UART_1_scbEnableIntr;
  43:Generated_Source\PSoC4/UART_1.c **** 
  44:Generated_Source\PSoC4/UART_1.c ****     /* I2C configuration variables */
  45:Generated_Source\PSoC4/UART_1.c ****     uint8 UART_1_mode;
  46:Generated_Source\PSoC4/UART_1.c ****     uint8 UART_1_acceptAddr;
  47:Generated_Source\PSoC4/UART_1.c **** 
  48:Generated_Source\PSoC4/UART_1.c ****     /* SPI/UART configuration variables */
  49:Generated_Source\PSoC4/UART_1.c ****     volatile uint8 * UART_1_rxBuffer;
  50:Generated_Source\PSoC4/UART_1.c ****     uint8  UART_1_rxDataBits;
  51:Generated_Source\PSoC4/UART_1.c ****     uint32 UART_1_rxBufferSize;
  52:Generated_Source\PSoC4/UART_1.c **** 
ARM GAS  C:\Users\IYANG~1.DES\AppData\Local\Temp\ccQxKkVG.s 			page 24


  53:Generated_Source\PSoC4/UART_1.c ****     volatile uint8 * UART_1_txBuffer;
  54:Generated_Source\PSoC4/UART_1.c ****     uint8  UART_1_txDataBits;
  55:Generated_Source\PSoC4/UART_1.c ****     uint32 UART_1_txBufferSize;
  56:Generated_Source\PSoC4/UART_1.c **** 
  57:Generated_Source\PSoC4/UART_1.c ****     /* EZI2C configuration variables */
  58:Generated_Source\PSoC4/UART_1.c ****     uint8 UART_1_numberOfAddr;
  59:Generated_Source\PSoC4/UART_1.c ****     uint8 UART_1_subAddrSize;
  60:Generated_Source\PSoC4/UART_1.c **** #endif /* (UART_1_SCB_MODE_UNCONFIG_CONST_CFG) */
  61:Generated_Source\PSoC4/UART_1.c **** 
  62:Generated_Source\PSoC4/UART_1.c **** 
  63:Generated_Source\PSoC4/UART_1.c **** /***************************************
  64:Generated_Source\PSoC4/UART_1.c **** *     Common SCB Vars
  65:Generated_Source\PSoC4/UART_1.c **** ***************************************/
  66:Generated_Source\PSoC4/UART_1.c **** /**
  67:Generated_Source\PSoC4/UART_1.c **** * \addtogroup group_general
  68:Generated_Source\PSoC4/UART_1.c **** * \{
  69:Generated_Source\PSoC4/UART_1.c **** */
  70:Generated_Source\PSoC4/UART_1.c **** 
  71:Generated_Source\PSoC4/UART_1.c **** /** UART_1_initVar indicates whether the UART_1 
  72:Generated_Source\PSoC4/UART_1.c **** *  component has been initialized. The variable is initialized to 0 
  73:Generated_Source\PSoC4/UART_1.c **** *  and set to 1 the first time SCB_Start() is called. This allows 
  74:Generated_Source\PSoC4/UART_1.c **** *  the component to restart without reinitialization after the first 
  75:Generated_Source\PSoC4/UART_1.c **** *  call to the UART_1_Start() routine.
  76:Generated_Source\PSoC4/UART_1.c **** *
  77:Generated_Source\PSoC4/UART_1.c **** *  If re-initialization of the component is required, then the 
  78:Generated_Source\PSoC4/UART_1.c **** *  UART_1_Init() function can be called before the 
  79:Generated_Source\PSoC4/UART_1.c **** *  UART_1_Start() or UART_1_Enable() function.
  80:Generated_Source\PSoC4/UART_1.c **** */
  81:Generated_Source\PSoC4/UART_1.c **** uint8 UART_1_initVar = 0u;
  82:Generated_Source\PSoC4/UART_1.c **** 
  83:Generated_Source\PSoC4/UART_1.c **** 
  84:Generated_Source\PSoC4/UART_1.c **** #if (! (UART_1_SCB_MODE_I2C_CONST_CFG || \
  85:Generated_Source\PSoC4/UART_1.c ****         UART_1_SCB_MODE_EZI2C_CONST_CFG))
  86:Generated_Source\PSoC4/UART_1.c ****     /** This global variable stores TX interrupt sources after 
  87:Generated_Source\PSoC4/UART_1.c ****     * UART_1_Stop() is called. Only these TX interrupt sources 
  88:Generated_Source\PSoC4/UART_1.c ****     * will be restored on a subsequent UART_1_Enable() call.
  89:Generated_Source\PSoC4/UART_1.c ****     */
  90:Generated_Source\PSoC4/UART_1.c ****     uint16 UART_1_IntrTxMask = 0u;
  91:Generated_Source\PSoC4/UART_1.c **** #endif /* (! (UART_1_SCB_MODE_I2C_CONST_CFG || \
  92:Generated_Source\PSoC4/UART_1.c ****               UART_1_SCB_MODE_EZI2C_CONST_CFG)) */
  93:Generated_Source\PSoC4/UART_1.c **** /** \} globals */
  94:Generated_Source\PSoC4/UART_1.c **** 
  95:Generated_Source\PSoC4/UART_1.c **** #if (UART_1_SCB_IRQ_INTERNAL)
  96:Generated_Source\PSoC4/UART_1.c **** #if !defined (CY_REMOVE_UART_1_CUSTOM_INTR_HANDLER)
  97:Generated_Source\PSoC4/UART_1.c ****     void (*UART_1_customIntrHandler)(void) = NULL;
  98:Generated_Source\PSoC4/UART_1.c **** #endif /* !defined (CY_REMOVE_UART_1_CUSTOM_INTR_HANDLER) */
  99:Generated_Source\PSoC4/UART_1.c **** #endif /* (UART_1_SCB_IRQ_INTERNAL) */
 100:Generated_Source\PSoC4/UART_1.c **** 
 101:Generated_Source\PSoC4/UART_1.c **** 
 102:Generated_Source\PSoC4/UART_1.c **** /***************************************
 103:Generated_Source\PSoC4/UART_1.c **** *    Private Function Prototypes
 104:Generated_Source\PSoC4/UART_1.c **** ***************************************/
 105:Generated_Source\PSoC4/UART_1.c **** 
 106:Generated_Source\PSoC4/UART_1.c **** static void UART_1_ScbEnableIntr(void);
 107:Generated_Source\PSoC4/UART_1.c **** static void UART_1_ScbModeStop(void);
 108:Generated_Source\PSoC4/UART_1.c **** static void UART_1_ScbModePostEnable(void);
 109:Generated_Source\PSoC4/UART_1.c **** 
ARM GAS  C:\Users\IYANG~1.DES\AppData\Local\Temp\ccQxKkVG.s 			page 25


 110:Generated_Source\PSoC4/UART_1.c **** 
 111:Generated_Source\PSoC4/UART_1.c **** /*******************************************************************************
 112:Generated_Source\PSoC4/UART_1.c **** * Function Name: UART_1_Init
 113:Generated_Source\PSoC4/UART_1.c **** ****************************************************************************//**
 114:Generated_Source\PSoC4/UART_1.c **** *
 115:Generated_Source\PSoC4/UART_1.c **** *  Initializes the UART_1 component to operate in one of the selected
 116:Generated_Source\PSoC4/UART_1.c **** *  configurations: I2C, SPI, UART or EZI2C.
 117:Generated_Source\PSoC4/UART_1.c **** *  When the configuration is set to "Unconfigured SCB", this function does
 118:Generated_Source\PSoC4/UART_1.c **** *  not do any initialization. Use mode-specific initialization APIs instead:
 119:Generated_Source\PSoC4/UART_1.c **** *  UART_1_I2CInit, UART_1_SpiInit, 
 120:Generated_Source\PSoC4/UART_1.c **** *  UART_1_UartInit or UART_1_EzI2CInit.
 121:Generated_Source\PSoC4/UART_1.c **** *
 122:Generated_Source\PSoC4/UART_1.c **** *******************************************************************************/
 123:Generated_Source\PSoC4/UART_1.c **** void UART_1_Init(void)
 124:Generated_Source\PSoC4/UART_1.c **** {
 313              		.loc 1 124 0
 314              		.cfi_startproc
 315 0000 08B5     		push	{r3, lr}
 316              		.cfi_def_cfa_offset 8
 317              		.cfi_offset 3, -8
 318              		.cfi_offset 14, -4
 125:Generated_Source\PSoC4/UART_1.c **** #if (UART_1_SCB_MODE_UNCONFIG_CONST_CFG)
 126:Generated_Source\PSoC4/UART_1.c ****     if (UART_1_SCB_MODE_UNCONFIG_RUNTM_CFG)
 127:Generated_Source\PSoC4/UART_1.c ****     {
 128:Generated_Source\PSoC4/UART_1.c ****         UART_1_initVar = 0u;
 129:Generated_Source\PSoC4/UART_1.c ****     }
 130:Generated_Source\PSoC4/UART_1.c ****     else
 131:Generated_Source\PSoC4/UART_1.c ****     {
 132:Generated_Source\PSoC4/UART_1.c ****         /* Initialization was done before this function call */
 133:Generated_Source\PSoC4/UART_1.c ****     }
 134:Generated_Source\PSoC4/UART_1.c **** 
 135:Generated_Source\PSoC4/UART_1.c **** #elif (UART_1_SCB_MODE_I2C_CONST_CFG)
 136:Generated_Source\PSoC4/UART_1.c ****     UART_1_I2CInit();
 137:Generated_Source\PSoC4/UART_1.c **** 
 138:Generated_Source\PSoC4/UART_1.c **** #elif (UART_1_SCB_MODE_SPI_CONST_CFG)
 139:Generated_Source\PSoC4/UART_1.c ****     UART_1_SpiInit();
 140:Generated_Source\PSoC4/UART_1.c **** 
 141:Generated_Source\PSoC4/UART_1.c **** #elif (UART_1_SCB_MODE_UART_CONST_CFG)
 142:Generated_Source\PSoC4/UART_1.c ****     UART_1_UartInit();
 319              		.loc 1 142 0
 320 0002 FFF7FEFF 		bl	UART_1_UartInit
 321              	.LVL0:
 143:Generated_Source\PSoC4/UART_1.c **** 
 144:Generated_Source\PSoC4/UART_1.c **** #elif (UART_1_SCB_MODE_EZI2C_CONST_CFG)
 145:Generated_Source\PSoC4/UART_1.c ****     UART_1_EzI2CInit();
 146:Generated_Source\PSoC4/UART_1.c **** 
 147:Generated_Source\PSoC4/UART_1.c **** #endif /* (UART_1_SCB_MODE_UNCONFIG_CONST_CFG) */
 148:Generated_Source\PSoC4/UART_1.c **** }
 322              		.loc 1 148 0
 323              		@ sp needed
 324 0006 08BD     		pop	{r3, pc}
 325              		.cfi_endproc
 326              	.LFE2:
 327              		.size	UART_1_Init, .-UART_1_Init
 328              		.section	.text.UART_1_Enable,"ax",%progbits
 329              		.align	2
 330              		.global	UART_1_Enable
ARM GAS  C:\Users\IYANG~1.DES\AppData\Local\Temp\ccQxKkVG.s 			page 26


 331              		.code	16
 332              		.thumb_func
 333              		.type	UART_1_Enable, %function
 334              	UART_1_Enable:
 335              	.LFB3:
 149:Generated_Source\PSoC4/UART_1.c **** 
 150:Generated_Source\PSoC4/UART_1.c **** 
 151:Generated_Source\PSoC4/UART_1.c **** /*******************************************************************************
 152:Generated_Source\PSoC4/UART_1.c **** * Function Name: UART_1_Enable
 153:Generated_Source\PSoC4/UART_1.c **** ****************************************************************************//**
 154:Generated_Source\PSoC4/UART_1.c **** *
 155:Generated_Source\PSoC4/UART_1.c **** *  Enables UART_1 component operation: activates the hardware and 
 156:Generated_Source\PSoC4/UART_1.c **** *  internal interrupt. It also restores TX interrupt sources disabled after the 
 157:Generated_Source\PSoC4/UART_1.c **** *  UART_1_Stop() function was called (note that level-triggered TX 
 158:Generated_Source\PSoC4/UART_1.c **** *  interrupt sources remain disabled to not cause code lock-up).
 159:Generated_Source\PSoC4/UART_1.c **** *  For I2C and EZI2C modes the interrupt is internal and mandatory for 
 160:Generated_Source\PSoC4/UART_1.c **** *  operation. For SPI and UART modes the interrupt can be configured as none, 
 161:Generated_Source\PSoC4/UART_1.c **** *  internal or external.
 162:Generated_Source\PSoC4/UART_1.c **** *  The UART_1 configuration should be not changed when the component
 163:Generated_Source\PSoC4/UART_1.c **** *  is enabled. Any configuration changes should be made after disabling the 
 164:Generated_Source\PSoC4/UART_1.c **** *  component.
 165:Generated_Source\PSoC4/UART_1.c **** *  When configuration is set to Unconfigured UART_1, the component 
 166:Generated_Source\PSoC4/UART_1.c **** *  must first be initialized to operate in one of the following configurations: 
 167:Generated_Source\PSoC4/UART_1.c **** *  I2C, SPI, UART or EZ I2C, using the mode-specific initialization API. 
 168:Generated_Source\PSoC4/UART_1.c **** *  Otherwise this function does not enable the component.
 169:Generated_Source\PSoC4/UART_1.c **** *
 170:Generated_Source\PSoC4/UART_1.c **** *******************************************************************************/
 171:Generated_Source\PSoC4/UART_1.c **** void UART_1_Enable(void)
 172:Generated_Source\PSoC4/UART_1.c **** {
 336              		.loc 1 172 0
 337              		.cfi_startproc
 173:Generated_Source\PSoC4/UART_1.c **** #if (UART_1_SCB_MODE_UNCONFIG_CONST_CFG)
 174:Generated_Source\PSoC4/UART_1.c ****     /* Enable SCB block, only if it is already configured */
 175:Generated_Source\PSoC4/UART_1.c ****     if (!UART_1_SCB_MODE_UNCONFIG_RUNTM_CFG)
 176:Generated_Source\PSoC4/UART_1.c ****     {
 177:Generated_Source\PSoC4/UART_1.c ****         UART_1_CTRL_REG |= UART_1_CTRL_ENABLED;
 178:Generated_Source\PSoC4/UART_1.c **** 
 179:Generated_Source\PSoC4/UART_1.c ****         UART_1_ScbEnableIntr();
 180:Generated_Source\PSoC4/UART_1.c **** 
 181:Generated_Source\PSoC4/UART_1.c ****         /* Call PostEnable function specific to current operation mode */
 182:Generated_Source\PSoC4/UART_1.c ****         UART_1_ScbModePostEnable();
 183:Generated_Source\PSoC4/UART_1.c ****     }
 184:Generated_Source\PSoC4/UART_1.c **** #else
 185:Generated_Source\PSoC4/UART_1.c ****     UART_1_CTRL_REG |= UART_1_CTRL_ENABLED;
 338              		.loc 1 185 0
 339 0000 8021     		mov	r1, #128
 340 0002 044A     		ldr	r2, .L3
 172:Generated_Source\PSoC4/UART_1.c **** #if (UART_1_SCB_MODE_UNCONFIG_CONST_CFG)
 341              		.loc 1 172 0
 342 0004 08B5     		push	{r3, lr}
 343              		.cfi_def_cfa_offset 8
 344              		.cfi_offset 3, -8
 345              		.cfi_offset 14, -4
 346              		.loc 1 185 0
 347 0006 1368     		ldr	r3, [r2]
 348 0008 0906     		lsl	r1, r1, #24
 349 000a 0B43     		orr	r3, r1
ARM GAS  C:\Users\IYANG~1.DES\AppData\Local\Temp\ccQxKkVG.s 			page 27


 350 000c 1360     		str	r3, [r2]
 351              	.LBB14:
 352              	.LBB15:
 186:Generated_Source\PSoC4/UART_1.c **** 
 187:Generated_Source\PSoC4/UART_1.c ****     UART_1_ScbEnableIntr();
 188:Generated_Source\PSoC4/UART_1.c **** 
 189:Generated_Source\PSoC4/UART_1.c ****     /* Call PostEnable function specific to current operation mode */
 190:Generated_Source\PSoC4/UART_1.c ****     UART_1_ScbModePostEnable();
 191:Generated_Source\PSoC4/UART_1.c **** #endif /* (UART_1_SCB_MODE_UNCONFIG_CONST_CFG) */
 192:Generated_Source\PSoC4/UART_1.c **** }
 193:Generated_Source\PSoC4/UART_1.c **** 
 194:Generated_Source\PSoC4/UART_1.c **** 
 195:Generated_Source\PSoC4/UART_1.c **** /*******************************************************************************
 196:Generated_Source\PSoC4/UART_1.c **** * Function Name: UART_1_Start
 197:Generated_Source\PSoC4/UART_1.c **** ****************************************************************************//**
 198:Generated_Source\PSoC4/UART_1.c **** *
 199:Generated_Source\PSoC4/UART_1.c **** *  Invokes UART_1_Init() and UART_1_Enable().
 200:Generated_Source\PSoC4/UART_1.c **** *  After this function call, the component is enabled and ready for operation.
 201:Generated_Source\PSoC4/UART_1.c **** *  When configuration is set to "Unconfigured SCB", the component must first be
 202:Generated_Source\PSoC4/UART_1.c **** *  initialized to operate in one of the following configurations: I2C, SPI, UART
 203:Generated_Source\PSoC4/UART_1.c **** *  or EZI2C. Otherwise this function does not enable the component.
 204:Generated_Source\PSoC4/UART_1.c **** *
 205:Generated_Source\PSoC4/UART_1.c **** * \globalvars
 206:Generated_Source\PSoC4/UART_1.c **** *  UART_1_initVar - used to check initial configuration, modified
 207:Generated_Source\PSoC4/UART_1.c **** *  on first function call.
 208:Generated_Source\PSoC4/UART_1.c **** *
 209:Generated_Source\PSoC4/UART_1.c **** *******************************************************************************/
 210:Generated_Source\PSoC4/UART_1.c **** void UART_1_Start(void)
 211:Generated_Source\PSoC4/UART_1.c **** {
 212:Generated_Source\PSoC4/UART_1.c ****     if (0u == UART_1_initVar)
 213:Generated_Source\PSoC4/UART_1.c ****     {
 214:Generated_Source\PSoC4/UART_1.c ****         UART_1_Init();
 215:Generated_Source\PSoC4/UART_1.c ****         UART_1_initVar = 1u; /* Component was initialized */
 216:Generated_Source\PSoC4/UART_1.c ****     }
 217:Generated_Source\PSoC4/UART_1.c **** 
 218:Generated_Source\PSoC4/UART_1.c ****     UART_1_Enable();
 219:Generated_Source\PSoC4/UART_1.c **** }
 220:Generated_Source\PSoC4/UART_1.c **** 
 221:Generated_Source\PSoC4/UART_1.c **** 
 222:Generated_Source\PSoC4/UART_1.c **** /*******************************************************************************
 223:Generated_Source\PSoC4/UART_1.c **** * Function Name: UART_1_Stop
 224:Generated_Source\PSoC4/UART_1.c **** ****************************************************************************//**
 225:Generated_Source\PSoC4/UART_1.c **** *
 226:Generated_Source\PSoC4/UART_1.c **** *  Disables the UART_1 component: disable the hardware and internal 
 227:Generated_Source\PSoC4/UART_1.c **** *  interrupt. It also disables all TX interrupt sources so as not to cause an 
 228:Generated_Source\PSoC4/UART_1.c **** *  unexpected interrupt trigger because after the component is enabled, the 
 229:Generated_Source\PSoC4/UART_1.c **** *  TX FIFO is empty.
 230:Generated_Source\PSoC4/UART_1.c **** *  Refer to the function UART_1_Enable() for the interrupt 
 231:Generated_Source\PSoC4/UART_1.c **** *  configuration details.
 232:Generated_Source\PSoC4/UART_1.c **** *  This function disables the SCB component without checking to see if 
 233:Generated_Source\PSoC4/UART_1.c **** *  communication is in progress. Before calling this function it may be 
 234:Generated_Source\PSoC4/UART_1.c **** *  necessary to check the status of communication to make sure communication 
 235:Generated_Source\PSoC4/UART_1.c **** *  is complete. If this is not done then communication could be stopped mid 
 236:Generated_Source\PSoC4/UART_1.c **** *  byte and corrupted data could result.
 237:Generated_Source\PSoC4/UART_1.c **** *
 238:Generated_Source\PSoC4/UART_1.c **** *******************************************************************************/
 239:Generated_Source\PSoC4/UART_1.c **** void UART_1_Stop(void)
ARM GAS  C:\Users\IYANG~1.DES\AppData\Local\Temp\ccQxKkVG.s 			page 28


 240:Generated_Source\PSoC4/UART_1.c **** {
 241:Generated_Source\PSoC4/UART_1.c **** #if (UART_1_SCB_IRQ_INTERNAL)
 242:Generated_Source\PSoC4/UART_1.c ****     UART_1_DisableInt();
 243:Generated_Source\PSoC4/UART_1.c **** #endif /* (UART_1_SCB_IRQ_INTERNAL) */
 244:Generated_Source\PSoC4/UART_1.c **** 
 245:Generated_Source\PSoC4/UART_1.c ****     /* Call Stop function specific to current operation mode */
 246:Generated_Source\PSoC4/UART_1.c ****     UART_1_ScbModeStop();
 247:Generated_Source\PSoC4/UART_1.c **** 
 248:Generated_Source\PSoC4/UART_1.c ****     /* Disable SCB IP */
 249:Generated_Source\PSoC4/UART_1.c ****     UART_1_CTRL_REG &= (uint32) ~UART_1_CTRL_ENABLED;
 250:Generated_Source\PSoC4/UART_1.c **** 
 251:Generated_Source\PSoC4/UART_1.c ****     /* Disable all TX interrupt sources so as not to cause an unexpected
 252:Generated_Source\PSoC4/UART_1.c ****     * interrupt trigger after the component will be enabled because the 
 253:Generated_Source\PSoC4/UART_1.c ****     * TX FIFO is empty.
 254:Generated_Source\PSoC4/UART_1.c ****     * For SCB IP v0, it is critical as it does not mask-out interrupt
 255:Generated_Source\PSoC4/UART_1.c ****     * sources when it is disabled. This can cause a code lock-up in the
 256:Generated_Source\PSoC4/UART_1.c ****     * interrupt handler because TX FIFO cannot be loaded after the block
 257:Generated_Source\PSoC4/UART_1.c ****     * is disabled.
 258:Generated_Source\PSoC4/UART_1.c ****     */
 259:Generated_Source\PSoC4/UART_1.c ****     UART_1_SetTxInterruptMode(UART_1_NO_INTR_SOURCES);
 260:Generated_Source\PSoC4/UART_1.c **** 
 261:Generated_Source\PSoC4/UART_1.c **** #if (UART_1_SCB_IRQ_INTERNAL)
 262:Generated_Source\PSoC4/UART_1.c ****     UART_1_ClearPendingInt();
 263:Generated_Source\PSoC4/UART_1.c **** #endif /* (UART_1_SCB_IRQ_INTERNAL) */
 264:Generated_Source\PSoC4/UART_1.c **** }
 265:Generated_Source\PSoC4/UART_1.c **** 
 266:Generated_Source\PSoC4/UART_1.c **** 
 267:Generated_Source\PSoC4/UART_1.c **** /*******************************************************************************
 268:Generated_Source\PSoC4/UART_1.c **** * Function Name: UART_1_SetRxFifoLevel
 269:Generated_Source\PSoC4/UART_1.c **** ****************************************************************************//**
 270:Generated_Source\PSoC4/UART_1.c **** *
 271:Generated_Source\PSoC4/UART_1.c **** *  Sets level in the RX FIFO to generate a RX level interrupt.
 272:Generated_Source\PSoC4/UART_1.c **** *  When the RX FIFO has more entries than the RX FIFO level an RX level
 273:Generated_Source\PSoC4/UART_1.c **** *  interrupt request is generated.
 274:Generated_Source\PSoC4/UART_1.c **** *
 275:Generated_Source\PSoC4/UART_1.c **** *  \param level: Level in the RX FIFO to generate RX level interrupt.
 276:Generated_Source\PSoC4/UART_1.c **** *   The range of valid level values is between 0 and RX FIFO depth - 1.
 277:Generated_Source\PSoC4/UART_1.c **** *
 278:Generated_Source\PSoC4/UART_1.c **** *******************************************************************************/
 279:Generated_Source\PSoC4/UART_1.c **** void UART_1_SetRxFifoLevel(uint32 level)
 280:Generated_Source\PSoC4/UART_1.c **** {
 281:Generated_Source\PSoC4/UART_1.c ****     uint32 rxFifoCtrl;
 282:Generated_Source\PSoC4/UART_1.c **** 
 283:Generated_Source\PSoC4/UART_1.c ****     rxFifoCtrl = UART_1_RX_FIFO_CTRL_REG;
 284:Generated_Source\PSoC4/UART_1.c **** 
 285:Generated_Source\PSoC4/UART_1.c ****     rxFifoCtrl &= ((uint32) ~UART_1_RX_FIFO_CTRL_TRIGGER_LEVEL_MASK); /* Clear level mask bits */
 286:Generated_Source\PSoC4/UART_1.c ****     rxFifoCtrl |= ((uint32) (UART_1_RX_FIFO_CTRL_TRIGGER_LEVEL_MASK & level));
 287:Generated_Source\PSoC4/UART_1.c **** 
 288:Generated_Source\PSoC4/UART_1.c ****     UART_1_RX_FIFO_CTRL_REG = rxFifoCtrl;
 289:Generated_Source\PSoC4/UART_1.c **** }
 290:Generated_Source\PSoC4/UART_1.c **** 
 291:Generated_Source\PSoC4/UART_1.c **** 
 292:Generated_Source\PSoC4/UART_1.c **** /*******************************************************************************
 293:Generated_Source\PSoC4/UART_1.c **** * Function Name: UART_1_SetTxFifoLevel
 294:Generated_Source\PSoC4/UART_1.c **** ****************************************************************************//**
 295:Generated_Source\PSoC4/UART_1.c **** *
 296:Generated_Source\PSoC4/UART_1.c **** *  Sets level in the TX FIFO to generate a TX level interrupt.
ARM GAS  C:\Users\IYANG~1.DES\AppData\Local\Temp\ccQxKkVG.s 			page 29


 297:Generated_Source\PSoC4/UART_1.c **** *  When the TX FIFO has less entries than the TX FIFO level an TX level
 298:Generated_Source\PSoC4/UART_1.c **** *  interrupt request is generated.
 299:Generated_Source\PSoC4/UART_1.c **** *
 300:Generated_Source\PSoC4/UART_1.c **** *  \param level: Level in the TX FIFO to generate TX level interrupt.
 301:Generated_Source\PSoC4/UART_1.c **** *   The range of valid level values is between 0 and TX FIFO depth - 1.
 302:Generated_Source\PSoC4/UART_1.c **** *
 303:Generated_Source\PSoC4/UART_1.c **** *******************************************************************************/
 304:Generated_Source\PSoC4/UART_1.c **** void UART_1_SetTxFifoLevel(uint32 level)
 305:Generated_Source\PSoC4/UART_1.c **** {
 306:Generated_Source\PSoC4/UART_1.c ****     uint32 txFifoCtrl;
 307:Generated_Source\PSoC4/UART_1.c **** 
 308:Generated_Source\PSoC4/UART_1.c ****     txFifoCtrl = UART_1_TX_FIFO_CTRL_REG;
 309:Generated_Source\PSoC4/UART_1.c **** 
 310:Generated_Source\PSoC4/UART_1.c ****     txFifoCtrl &= ((uint32) ~UART_1_TX_FIFO_CTRL_TRIGGER_LEVEL_MASK); /* Clear level mask bits */
 311:Generated_Source\PSoC4/UART_1.c ****     txFifoCtrl |= ((uint32) (UART_1_TX_FIFO_CTRL_TRIGGER_LEVEL_MASK & level));
 312:Generated_Source\PSoC4/UART_1.c **** 
 313:Generated_Source\PSoC4/UART_1.c ****     UART_1_TX_FIFO_CTRL_REG = txFifoCtrl;
 314:Generated_Source\PSoC4/UART_1.c **** }
 315:Generated_Source\PSoC4/UART_1.c **** 
 316:Generated_Source\PSoC4/UART_1.c **** 
 317:Generated_Source\PSoC4/UART_1.c **** #if (UART_1_SCB_IRQ_INTERNAL)
 318:Generated_Source\PSoC4/UART_1.c ****     /*******************************************************************************
 319:Generated_Source\PSoC4/UART_1.c ****     * Function Name: UART_1_SetCustomInterruptHandler
 320:Generated_Source\PSoC4/UART_1.c ****     ****************************************************************************//**
 321:Generated_Source\PSoC4/UART_1.c ****     *
 322:Generated_Source\PSoC4/UART_1.c ****     *  Registers a function to be called by the internal interrupt handler.
 323:Generated_Source\PSoC4/UART_1.c ****     *  First the function that is registered is called, then the internal interrupt
 324:Generated_Source\PSoC4/UART_1.c ****     *  handler performs any operation such as software buffer management functions
 325:Generated_Source\PSoC4/UART_1.c ****     *  before the interrupt returns.  It is the user's responsibility not to break
 326:Generated_Source\PSoC4/UART_1.c ****     *  the software buffer operations. Only one custom handler is supported, which
 327:Generated_Source\PSoC4/UART_1.c ****     *  is the function provided by the most recent call.
 328:Generated_Source\PSoC4/UART_1.c ****     *  At the initialization time no custom handler is registered.
 329:Generated_Source\PSoC4/UART_1.c ****     *
 330:Generated_Source\PSoC4/UART_1.c ****     *  \param func: Pointer to the function to register.
 331:Generated_Source\PSoC4/UART_1.c ****     *        The value NULL indicates to remove the current custom interrupt
 332:Generated_Source\PSoC4/UART_1.c ****     *        handler.
 333:Generated_Source\PSoC4/UART_1.c ****     *
 334:Generated_Source\PSoC4/UART_1.c ****     *******************************************************************************/
 335:Generated_Source\PSoC4/UART_1.c ****     void UART_1_SetCustomInterruptHandler(void (*func)(void))
 336:Generated_Source\PSoC4/UART_1.c ****     {
 337:Generated_Source\PSoC4/UART_1.c ****     #if !defined (CY_REMOVE_UART_1_CUSTOM_INTR_HANDLER)
 338:Generated_Source\PSoC4/UART_1.c ****         UART_1_customIntrHandler = func; /* Register interrupt handler */
 339:Generated_Source\PSoC4/UART_1.c ****     #else
 340:Generated_Source\PSoC4/UART_1.c ****         if (NULL != func)
 341:Generated_Source\PSoC4/UART_1.c ****         {
 342:Generated_Source\PSoC4/UART_1.c ****             /* Suppress compiler warning */
 343:Generated_Source\PSoC4/UART_1.c ****         }
 344:Generated_Source\PSoC4/UART_1.c ****     #endif /* !defined (CY_REMOVE_UART_1_CUSTOM_INTR_HANDLER) */
 345:Generated_Source\PSoC4/UART_1.c ****     }
 346:Generated_Source\PSoC4/UART_1.c **** #endif /* (UART_1_SCB_IRQ_INTERNAL) */
 347:Generated_Source\PSoC4/UART_1.c **** 
 348:Generated_Source\PSoC4/UART_1.c **** 
 349:Generated_Source\PSoC4/UART_1.c **** /*******************************************************************************
 350:Generated_Source\PSoC4/UART_1.c **** * Function Name: UART_1_ScbModeEnableIntr
 351:Generated_Source\PSoC4/UART_1.c **** ****************************************************************************//**
 352:Generated_Source\PSoC4/UART_1.c **** *
 353:Generated_Source\PSoC4/UART_1.c **** *  Enables an interrupt for a specific mode.
ARM GAS  C:\Users\IYANG~1.DES\AppData\Local\Temp\ccQxKkVG.s 			page 30


 354:Generated_Source\PSoC4/UART_1.c **** *
 355:Generated_Source\PSoC4/UART_1.c **** *******************************************************************************/
 356:Generated_Source\PSoC4/UART_1.c **** static void UART_1_ScbEnableIntr(void)
 357:Generated_Source\PSoC4/UART_1.c **** {
 358:Generated_Source\PSoC4/UART_1.c **** #if (UART_1_SCB_IRQ_INTERNAL)
 359:Generated_Source\PSoC4/UART_1.c ****     /* Enable interrupt in NVIC */
 360:Generated_Source\PSoC4/UART_1.c ****     #if (UART_1_SCB_MODE_UNCONFIG_CONST_CFG)
 361:Generated_Source\PSoC4/UART_1.c ****         if (0u != UART_1_scbEnableIntr)
 362:Generated_Source\PSoC4/UART_1.c ****         {
 363:Generated_Source\PSoC4/UART_1.c ****             UART_1_EnableInt();
 364:Generated_Source\PSoC4/UART_1.c ****         }
 365:Generated_Source\PSoC4/UART_1.c **** 
 366:Generated_Source\PSoC4/UART_1.c ****     #else
 367:Generated_Source\PSoC4/UART_1.c ****         UART_1_EnableInt();
 368:Generated_Source\PSoC4/UART_1.c **** 
 369:Generated_Source\PSoC4/UART_1.c ****     #endif /* (UART_1_SCB_MODE_UNCONFIG_CONST_CFG) */
 370:Generated_Source\PSoC4/UART_1.c **** #endif /* (UART_1_SCB_IRQ_INTERNAL) */
 371:Generated_Source\PSoC4/UART_1.c **** }
 372:Generated_Source\PSoC4/UART_1.c **** 
 373:Generated_Source\PSoC4/UART_1.c **** 
 374:Generated_Source\PSoC4/UART_1.c **** /*******************************************************************************
 375:Generated_Source\PSoC4/UART_1.c **** * Function Name: UART_1_ScbModePostEnable
 376:Generated_Source\PSoC4/UART_1.c **** ****************************************************************************//**
 377:Generated_Source\PSoC4/UART_1.c **** *
 378:Generated_Source\PSoC4/UART_1.c **** *  Calls the PostEnable function for a specific operation mode.
 379:Generated_Source\PSoC4/UART_1.c **** *
 380:Generated_Source\PSoC4/UART_1.c **** *******************************************************************************/
 381:Generated_Source\PSoC4/UART_1.c **** static void UART_1_ScbModePostEnable(void)
 382:Generated_Source\PSoC4/UART_1.c **** {
 383:Generated_Source\PSoC4/UART_1.c **** #if (UART_1_SCB_MODE_UNCONFIG_CONST_CFG)
 384:Generated_Source\PSoC4/UART_1.c **** #if (!UART_1_CY_SCBIP_V1)
 385:Generated_Source\PSoC4/UART_1.c ****     if (UART_1_SCB_MODE_SPI_RUNTM_CFG)
 386:Generated_Source\PSoC4/UART_1.c ****     {
 387:Generated_Source\PSoC4/UART_1.c ****         UART_1_SpiPostEnable();
 388:Generated_Source\PSoC4/UART_1.c ****     }
 389:Generated_Source\PSoC4/UART_1.c ****     else if (UART_1_SCB_MODE_UART_RUNTM_CFG)
 390:Generated_Source\PSoC4/UART_1.c ****     {
 391:Generated_Source\PSoC4/UART_1.c ****         UART_1_UartPostEnable();
 392:Generated_Source\PSoC4/UART_1.c ****     }
 393:Generated_Source\PSoC4/UART_1.c ****     else
 394:Generated_Source\PSoC4/UART_1.c ****     {
 395:Generated_Source\PSoC4/UART_1.c ****         /* Unknown mode: do nothing */
 396:Generated_Source\PSoC4/UART_1.c ****     }
 397:Generated_Source\PSoC4/UART_1.c **** #endif /* (!UART_1_CY_SCBIP_V1) */
 398:Generated_Source\PSoC4/UART_1.c **** 
 399:Generated_Source\PSoC4/UART_1.c **** #elif (UART_1_SCB_MODE_SPI_CONST_CFG)
 400:Generated_Source\PSoC4/UART_1.c ****     UART_1_SpiPostEnable();
 401:Generated_Source\PSoC4/UART_1.c **** 
 402:Generated_Source\PSoC4/UART_1.c **** #elif (UART_1_SCB_MODE_UART_CONST_CFG)
 403:Generated_Source\PSoC4/UART_1.c ****     UART_1_UartPostEnable();
 353              		.loc 1 403 0
 354 000e FFF7FEFF 		bl	UART_1_UartPostEnable
 355              	.LVL1:
 356              	.LBE15:
 357              	.LBE14:
 192:Generated_Source\PSoC4/UART_1.c **** 
 358              		.loc 1 192 0
ARM GAS  C:\Users\IYANG~1.DES\AppData\Local\Temp\ccQxKkVG.s 			page 31


 359              		@ sp needed
 360 0012 08BD     		pop	{r3, pc}
 361              	.L4:
 362              		.align	2
 363              	.L3:
 364 0014 00002440 		.word	1076101120
 365              		.cfi_endproc
 366              	.LFE3:
 367              		.size	UART_1_Enable, .-UART_1_Enable
 368              		.section	.text.UART_1_Start,"ax",%progbits
 369              		.align	2
 370              		.global	UART_1_Start
 371              		.code	16
 372              		.thumb_func
 373              		.type	UART_1_Start, %function
 374              	UART_1_Start:
 375              	.LFB4:
 211:Generated_Source\PSoC4/UART_1.c ****     if (0u == UART_1_initVar)
 376              		.loc 1 211 0
 377              		.cfi_startproc
 378 0000 10B5     		push	{r4, lr}
 379              		.cfi_def_cfa_offset 8
 380              		.cfi_offset 4, -8
 381              		.cfi_offset 14, -4
 212:Generated_Source\PSoC4/UART_1.c ****     {
 382              		.loc 1 212 0
 383 0002 084C     		ldr	r4, .L8
 384 0004 2378     		ldrb	r3, [r4]
 385 0006 002B     		cmp	r3, #0
 386 0008 03D1     		bne	.L6
 387              	.LBB16:
 388              	.LBB17:
 142:Generated_Source\PSoC4/UART_1.c **** 
 389              		.loc 1 142 0
 390 000a FFF7FEFF 		bl	UART_1_UartInit
 391              	.LVL2:
 392              	.LBE17:
 393              	.LBE16:
 215:Generated_Source\PSoC4/UART_1.c ****     }
 394              		.loc 1 215 0
 395 000e 0123     		mov	r3, #1
 396 0010 2370     		strb	r3, [r4]
 397              	.L6:
 398              	.LBB18:
 399              	.LBB19:
 185:Generated_Source\PSoC4/UART_1.c **** 
 400              		.loc 1 185 0
 401 0012 8021     		mov	r1, #128
 402 0014 044A     		ldr	r2, .L8+4
 403 0016 0906     		lsl	r1, r1, #24
 404 0018 1368     		ldr	r3, [r2]
 405              	.LBE19:
 406              	.LBE18:
 219:Generated_Source\PSoC4/UART_1.c **** 
 407              		.loc 1 219 0
 408              		@ sp needed
 409              	.LBB23:
ARM GAS  C:\Users\IYANG~1.DES\AppData\Local\Temp\ccQxKkVG.s 			page 32


 410              	.LBB22:
 185:Generated_Source\PSoC4/UART_1.c **** 
 411              		.loc 1 185 0
 412 001a 0B43     		orr	r3, r1
 413 001c 1360     		str	r3, [r2]
 414              	.LBB20:
 415              	.LBB21:
 416              		.loc 1 403 0
 417 001e FFF7FEFF 		bl	UART_1_UartPostEnable
 418              	.LVL3:
 419              	.LBE21:
 420              	.LBE20:
 421              	.LBE22:
 422              	.LBE23:
 219:Generated_Source\PSoC4/UART_1.c **** 
 423              		.loc 1 219 0
 424 0022 10BD     		pop	{r4, pc}
 425              	.L9:
 426              		.align	2
 427              	.L8:
 428 0024 00000000 		.word	.LANCHOR0
 429 0028 00002440 		.word	1076101120
 430              		.cfi_endproc
 431              	.LFE4:
 432              		.size	UART_1_Start, .-UART_1_Start
 433              		.section	.text.UART_1_Stop,"ax",%progbits
 434              		.align	2
 435              		.global	UART_1_Stop
 436              		.code	16
 437              		.thumb_func
 438              		.type	UART_1_Stop, %function
 439              	UART_1_Stop:
 440              	.LFB5:
 240:Generated_Source\PSoC4/UART_1.c **** #if (UART_1_SCB_IRQ_INTERNAL)
 441              		.loc 1 240 0
 442              		.cfi_startproc
 443 0000 08B5     		push	{r3, lr}
 444              		.cfi_def_cfa_offset 8
 445              		.cfi_offset 3, -8
 446              		.cfi_offset 14, -4
 447              	.LBB24:
 448              	.LBB25:
 404:Generated_Source\PSoC4/UART_1.c **** 
 405:Generated_Source\PSoC4/UART_1.c **** #else
 406:Generated_Source\PSoC4/UART_1.c ****     /* Unknown mode: do nothing */
 407:Generated_Source\PSoC4/UART_1.c **** #endif /* (UART_1_SCB_MODE_UNCONFIG_CONST_CFG) */
 408:Generated_Source\PSoC4/UART_1.c **** }
 409:Generated_Source\PSoC4/UART_1.c **** 
 410:Generated_Source\PSoC4/UART_1.c **** 
 411:Generated_Source\PSoC4/UART_1.c **** /*******************************************************************************
 412:Generated_Source\PSoC4/UART_1.c **** * Function Name: UART_1_ScbModeStop
 413:Generated_Source\PSoC4/UART_1.c **** ****************************************************************************//**
 414:Generated_Source\PSoC4/UART_1.c **** *
 415:Generated_Source\PSoC4/UART_1.c **** *  Calls the Stop function for a specific operation mode.
 416:Generated_Source\PSoC4/UART_1.c **** *
 417:Generated_Source\PSoC4/UART_1.c **** *******************************************************************************/
 418:Generated_Source\PSoC4/UART_1.c **** static void UART_1_ScbModeStop(void)
ARM GAS  C:\Users\IYANG~1.DES\AppData\Local\Temp\ccQxKkVG.s 			page 33


 419:Generated_Source\PSoC4/UART_1.c **** {
 420:Generated_Source\PSoC4/UART_1.c **** #if (UART_1_SCB_MODE_UNCONFIG_CONST_CFG)
 421:Generated_Source\PSoC4/UART_1.c ****     if (UART_1_SCB_MODE_I2C_RUNTM_CFG)
 422:Generated_Source\PSoC4/UART_1.c ****     {
 423:Generated_Source\PSoC4/UART_1.c ****         UART_1_I2CStop();
 424:Generated_Source\PSoC4/UART_1.c ****     }
 425:Generated_Source\PSoC4/UART_1.c ****     else if (UART_1_SCB_MODE_EZI2C_RUNTM_CFG)
 426:Generated_Source\PSoC4/UART_1.c ****     {
 427:Generated_Source\PSoC4/UART_1.c ****         UART_1_EzI2CStop();
 428:Generated_Source\PSoC4/UART_1.c ****     }
 429:Generated_Source\PSoC4/UART_1.c **** #if (!UART_1_CY_SCBIP_V1)
 430:Generated_Source\PSoC4/UART_1.c ****     else if (UART_1_SCB_MODE_SPI_RUNTM_CFG)
 431:Generated_Source\PSoC4/UART_1.c ****     {
 432:Generated_Source\PSoC4/UART_1.c ****         UART_1_SpiStop();
 433:Generated_Source\PSoC4/UART_1.c ****     }
 434:Generated_Source\PSoC4/UART_1.c ****     else if (UART_1_SCB_MODE_UART_RUNTM_CFG)
 435:Generated_Source\PSoC4/UART_1.c ****     {
 436:Generated_Source\PSoC4/UART_1.c ****         UART_1_UartStop();
 437:Generated_Source\PSoC4/UART_1.c ****     }
 438:Generated_Source\PSoC4/UART_1.c **** #endif /* (!UART_1_CY_SCBIP_V1) */
 439:Generated_Source\PSoC4/UART_1.c ****     else
 440:Generated_Source\PSoC4/UART_1.c ****     {
 441:Generated_Source\PSoC4/UART_1.c ****         /* Unknown mode: do nothing */
 442:Generated_Source\PSoC4/UART_1.c ****     }
 443:Generated_Source\PSoC4/UART_1.c **** #elif (UART_1_SCB_MODE_I2C_CONST_CFG)
 444:Generated_Source\PSoC4/UART_1.c ****     UART_1_I2CStop();
 445:Generated_Source\PSoC4/UART_1.c **** 
 446:Generated_Source\PSoC4/UART_1.c **** #elif (UART_1_SCB_MODE_EZI2C_CONST_CFG)
 447:Generated_Source\PSoC4/UART_1.c ****     UART_1_EzI2CStop();
 448:Generated_Source\PSoC4/UART_1.c **** 
 449:Generated_Source\PSoC4/UART_1.c **** #elif (UART_1_SCB_MODE_SPI_CONST_CFG)
 450:Generated_Source\PSoC4/UART_1.c ****     UART_1_SpiStop();
 451:Generated_Source\PSoC4/UART_1.c **** 
 452:Generated_Source\PSoC4/UART_1.c **** #elif (UART_1_SCB_MODE_UART_CONST_CFG)
 453:Generated_Source\PSoC4/UART_1.c ****     UART_1_UartStop();
 449              		.loc 1 453 0
 450 0002 FFF7FEFF 		bl	UART_1_UartStop
 451              	.LVL4:
 452              	.LBE25:
 453              	.LBE24:
 249:Generated_Source\PSoC4/UART_1.c **** 
 454              		.loc 1 249 0
 455 0006 044A     		ldr	r2, .L11
 264:Generated_Source\PSoC4/UART_1.c **** 
 456              		.loc 1 264 0
 457              		@ sp needed
 249:Generated_Source\PSoC4/UART_1.c **** 
 458              		.loc 1 249 0
 459 0008 1368     		ldr	r3, [r2]
 460 000a 5B00     		lsl	r3, r3, #1
 461 000c 5B08     		lsr	r3, r3, #1
 462 000e 1360     		str	r3, [r2]
 259:Generated_Source\PSoC4/UART_1.c **** 
 463              		.loc 1 259 0
 464 0010 0022     		mov	r2, #0
 465 0012 024B     		ldr	r3, .L11+4
 466 0014 1A60     		str	r2, [r3]
ARM GAS  C:\Users\IYANG~1.DES\AppData\Local\Temp\ccQxKkVG.s 			page 34


 264:Generated_Source\PSoC4/UART_1.c **** 
 467              		.loc 1 264 0
 468 0016 08BD     		pop	{r3, pc}
 469              	.L12:
 470              		.align	2
 471              	.L11:
 472 0018 00002440 		.word	1076101120
 473 001c 880F2440 		.word	1076105096
 474              		.cfi_endproc
 475              	.LFE5:
 476              		.size	UART_1_Stop, .-UART_1_Stop
 477              		.section	.text.UART_1_SetRxFifoLevel,"ax",%progbits
 478              		.align	2
 479              		.global	UART_1_SetRxFifoLevel
 480              		.code	16
 481              		.thumb_func
 482              		.type	UART_1_SetRxFifoLevel, %function
 483              	UART_1_SetRxFifoLevel:
 484              	.LFB6:
 280:Generated_Source\PSoC4/UART_1.c ****     uint32 rxFifoCtrl;
 485              		.loc 1 280 0
 486              		.cfi_startproc
 487              	.LVL5:
 285:Generated_Source\PSoC4/UART_1.c ****     rxFifoCtrl |= ((uint32) (UART_1_RX_FIFO_CTRL_TRIGGER_LEVEL_MASK & level));
 488              		.loc 1 285 0
 489 0000 0F21     		mov	r1, #15
 283:Generated_Source\PSoC4/UART_1.c **** 
 490              		.loc 1 283 0
 491 0002 034A     		ldr	r2, .L14
 286:Generated_Source\PSoC4/UART_1.c **** 
 492              		.loc 1 286 0
 493 0004 0840     		and	r0, r1
 494              	.LVL6:
 283:Generated_Source\PSoC4/UART_1.c **** 
 495              		.loc 1 283 0
 496 0006 1368     		ldr	r3, [r2]
 497              	.LVL7:
 289:Generated_Source\PSoC4/UART_1.c **** 
 498              		.loc 1 289 0
 499              		@ sp needed
 285:Generated_Source\PSoC4/UART_1.c ****     rxFifoCtrl |= ((uint32) (UART_1_RX_FIFO_CTRL_TRIGGER_LEVEL_MASK & level));
 500              		.loc 1 285 0
 501 0008 8B43     		bic	r3, r1
 502              	.LVL8:
 286:Generated_Source\PSoC4/UART_1.c **** 
 503              		.loc 1 286 0
 504 000a 1843     		orr	r0, r3
 505              	.LVL9:
 288:Generated_Source\PSoC4/UART_1.c **** }
 506              		.loc 1 288 0
 507 000c 1060     		str	r0, [r2]
 289:Generated_Source\PSoC4/UART_1.c **** 
 508              		.loc 1 289 0
 509 000e 7047     		bx	lr
 510              	.L15:
 511              		.align	2
 512              	.L14:
ARM GAS  C:\Users\IYANG~1.DES\AppData\Local\Temp\ccQxKkVG.s 			page 35


 513 0010 04032440 		.word	1076101892
 514              		.cfi_endproc
 515              	.LFE6:
 516              		.size	UART_1_SetRxFifoLevel, .-UART_1_SetRxFifoLevel
 517              		.section	.text.UART_1_SetTxFifoLevel,"ax",%progbits
 518              		.align	2
 519              		.global	UART_1_SetTxFifoLevel
 520              		.code	16
 521              		.thumb_func
 522              		.type	UART_1_SetTxFifoLevel, %function
 523              	UART_1_SetTxFifoLevel:
 524              	.LFB7:
 305:Generated_Source\PSoC4/UART_1.c ****     uint32 txFifoCtrl;
 525              		.loc 1 305 0
 526              		.cfi_startproc
 527              	.LVL10:
 310:Generated_Source\PSoC4/UART_1.c ****     txFifoCtrl |= ((uint32) (UART_1_TX_FIFO_CTRL_TRIGGER_LEVEL_MASK & level));
 528              		.loc 1 310 0
 529 0000 0F21     		mov	r1, #15
 308:Generated_Source\PSoC4/UART_1.c **** 
 530              		.loc 1 308 0
 531 0002 034A     		ldr	r2, .L17
 311:Generated_Source\PSoC4/UART_1.c **** 
 532              		.loc 1 311 0
 533 0004 0840     		and	r0, r1
 534              	.LVL11:
 308:Generated_Source\PSoC4/UART_1.c **** 
 535              		.loc 1 308 0
 536 0006 1368     		ldr	r3, [r2]
 537              	.LVL12:
 314:Generated_Source\PSoC4/UART_1.c **** 
 538              		.loc 1 314 0
 539              		@ sp needed
 310:Generated_Source\PSoC4/UART_1.c ****     txFifoCtrl |= ((uint32) (UART_1_TX_FIFO_CTRL_TRIGGER_LEVEL_MASK & level));
 540              		.loc 1 310 0
 541 0008 8B43     		bic	r3, r1
 542              	.LVL13:
 311:Generated_Source\PSoC4/UART_1.c **** 
 543              		.loc 1 311 0
 544 000a 1843     		orr	r0, r3
 545              	.LVL14:
 313:Generated_Source\PSoC4/UART_1.c **** }
 546              		.loc 1 313 0
 547 000c 1060     		str	r0, [r2]
 314:Generated_Source\PSoC4/UART_1.c **** 
 548              		.loc 1 314 0
 549 000e 7047     		bx	lr
 550              	.L18:
 551              		.align	2
 552              	.L17:
 553 0010 04022440 		.word	1076101636
 554              		.cfi_endproc
 555              	.LFE7:
 556              		.size	UART_1_SetTxFifoLevel, .-UART_1_SetTxFifoLevel
 557              		.global	UART_1_IntrTxMask
 558              		.global	UART_1_initVar
 559              		.bss
ARM GAS  C:\Users\IYANG~1.DES\AppData\Local\Temp\ccQxKkVG.s 			page 36


 560              		.align	1
 561              		.set	.LANCHOR0,. + 0
 562              		.type	UART_1_initVar, %object
 563              		.size	UART_1_initVar, 1
 564              	UART_1_initVar:
 565 0000 00       		.space	1
 566 0001 00       		.space	1
 567              		.type	UART_1_IntrTxMask, %object
 568              		.size	UART_1_IntrTxMask, 2
 569              	UART_1_IntrTxMask:
 570 0002 0000     		.space	2
 571              		.text
 572              	.Letext0:
 573              		.file 2 "Generated_Source\\PSoC4/cytypes.h"
 574              		.file 3 "Generated_Source\\PSoC4\\UART_1_SPI_UART_PVT.h"